ARM GAS  C:\Users\SOLDER~1\AppData\Local\Temp\ccg2RcbO.s 			page 1


   1              		.cpu cortex-m3
   2              		.arch armv7-m
   3              		.fpu softvfp
   4              		.eabi_attribute 20, 1
   5              		.eabi_attribute 21, 1
   6              		.eabi_attribute 23, 3
   7              		.eabi_attribute 24, 1
   8              		.eabi_attribute 25, 1
   9              		.eabi_attribute 26, 1
  10              		.eabi_attribute 30, 6
  11              		.eabi_attribute 34, 1
  12              		.eabi_attribute 18, 4
  13              		.file	"GMG12864_lib.c"
  14              		.text
  15              	.Ltext0:
  16              		.cfi_sections	.debug_frame
  17              		.global	tx_buffer
  18              		.section	.bss.tx_buffer,"aw",%nobits
  19              		.align	2
  22              	tx_buffer:
  23 0000 00000000 		.space	128
  23      00000000 
  23      00000000 
  23      00000000 
  23      00000000 
  24              		.global	Frame_buffer
  25              		.section	.bss.Frame_buffer,"aw",%nobits
  26              		.align	2
  29              	Frame_buffer:
  30 0000 00000000 		.space	1024
  30      00000000 
  30      00000000 
  30      00000000 
  30      00000000 
  31              		.global	GMG12864_width
  32              		.section	.data.GMG12864_width,"aw"
  35              	GMG12864_width:
  36 0000 80       		.byte	-128
  37              		.global	GMG12864_height
  38              		.section	.data.GMG12864_height,"aw"
  41              	GMG12864_height:
  42 0000 40       		.byte	64
  43              		.global	cnt
  44              		.section	.bss.cnt,"aw",%nobits
  47              	cnt:
  48 0000 00       		.space	1
  49              		.global	size_array
  50              		.section	.rodata.size_array,"a"
  53              	size_array:
  54 0000 64       		.byte	100
  55              		.global	arr
  56              		.section	.bss.arr,"aw",%nobits
  57              		.align	2
  60              	arr:
  61 0000 00000000 		.space	100
  61      00000000 
  61      00000000 
ARM GAS  C:\Users\SOLDER~1\AppData\Local\Temp\ccg2RcbO.s 			page 2


  61      00000000 
  61      00000000 
  62              		.global	array_is_full
  63              		.section	.bss.array_is_full,"aw",%nobits
  66              	array_is_full:
  67 0000 00       		.space	1
  68              		.global	Font_3x5
  69              		.section	.rodata.Font_3x5,"a"
  70              		.align	2
  73              	Font_3x5:
  74 0000 00000017 		.ascii	"\000\000\000\027\000\000\003\000\003\377\012\377\027"
  74      00000300 
  74      03FF0AFF 
  74      17
  75 000d FF1D0904 		.ascii	"\377\035\011\004\022\016\033\012\003\000\000\016\021"
  75      120E1B0A 
  75      0300000E 
  75      11
  76 001a 00110E00 		.ascii	"\000\021\016\000\004\012\004\004\016\004\020\030\000"
  76      040A0404 
  76      0E041018 
  76      00
  77 0027 04040410 		.ascii	"\004\004\004\020\000\000\010\004\002\377\021\377\021"
  77      00000804 
  77      02FF11FF 
  77      11
  78 0034 FF101D15 		.ascii	"\377\020\035\025\027\025\025\377\007\004\377\027\025"
  78      171515FF 
  78      0704FF17 
  78      15
  79 0041 1DFF151D 		.ascii	"\035\377\025\035\001\001\377\377\025\377\027\025\037"
  79      0101FFFF 
  79      15FF1715 
  79      1F
  80 004e 0A000010 		.ascii	"\012\000\000\020\012\000\004\012\000\012\012\012\012"
  80      0A00040A 
  80      000A0A0A 
  80      0A
  81 005b 04000115 		.ascii	"\004\000\001\025\007\037\021\027\037\005\037\037\025"
  81      071F1117 
  81      1F051F1F 
  81      15
  82 0068 1B1F1111 		.ascii	"\033\037\021\021\037\021\016\037\025\025\037\005\005"
  82      1F110E1F 
  82      15151F05 
  82      05
  83 0075 1F111D1F 		.ascii	"\037\021\035\037\004\037\021\037\021\030\020\037\037"
  83      041F111F 
  83      1118101F 
  83      1F
  84 0082 041B1F10 		.ascii	"\004\033\037\020\020\037\002\037\037\001\037\037\021"
  84      101F021F 
  84      1F011F1F 
  84      11
  85 008f 1F1F0507 		.ascii	"\037\037\005\007\017\031\017\037\005\033\027\025\035"
  85      0F190F1F 
  85      051B1715 
ARM GAS  C:\Users\SOLDER~1\AppData\Local\Temp\ccg2RcbO.s 			page 3


  85      1D
  86 009c 011F011F 		.ascii	"\001\037\001\037\020\037\017\020\017\037\010\037\033"
  86      101F0F10 
  86      0F1F081F 
  86      1B
  87 00a9 041B031C 		.ascii	"\004\033\003\034\003\031\025\023\037\021\000\002\004"
  87      03191513 
  87      1F110002 
  87      04
  88 00b6 08111F00 		.ascii	"\010\021\037\000\002\001\002\020\020\020\001\002\000"
  88      02010210 
  88      10100102 
  88      00
  89 00c3 0C121E1E 		.ascii	"\014\022\036\036\024\010\034\024\024\014\022\037\014"
  89      14081C14 
  89      140C121F 
  89      0C
  90 00d0 1A14041F 		.ascii	"\032\024\004\037\005\027\025\017\037\002\034\000\035"
  90      0517150F 
  90      1F021C00 
  90      1D
  91 00dd 00100D00 		.ascii	"\000\020\015\000\037\004\032\001\037\000\036\004\036"
  91      1F041A01 
  91      1F001E04 
  91      1E
  92 00ea 1E021E1E 		.ascii	"\036\002\036\036\022\036\036\012\004\004\012\036\036"
  92      121E1E0A 
  92      04040A1E 
  92      1E
  93 00f7 02061412 		.ascii	"\002\006\024\022\012\002\037\022\036\020\036\016\020"
  93      0A021F12 
  93      1E101E0E 
  93      10
  94 0104 0E1E081E 		.ascii	"\016\036\010\036\032\004\032\023\024\017\032\022\026"
  94      1A041A13 
  94      140F1A12 
  94      16
  95 0111 041F1100 		.ascii	"\004\037\021\000\037\000\021\037\004\014\004\006\037"
  95      1F00111F 
  95      040C0406 
  95      1F
  96 011e 051F1F15 		.ascii	"\005\037\037\025\035\037\025\033\037\001\001\036\021"
  96      1D1F151B 
  96      1F01011E 
  96      11
  97 012b 1E1F1515 		.ascii	"\036\037\025\025\033\037\033\025\025\033\037\020\037"
  97      1B1F1B15 
  97      151B1F10 
  97      1F
  98 0138 1D111D1F 		.ascii	"\035\021\035\037\004\033\036\001\037\037\002\037\037"
  98      041B1E01 
  98      1F1F021F 
  98      1F
  99 0145 041F1F11 		.ascii	"\004\037\037\021\037\037\001\037\037\005\007\037\021"
  99      1F1F011F 
  99      1F05071F 
  99      11
ARM GAS  C:\Users\SOLDER~1\AppData\Local\Temp\ccg2RcbO.s 			page 4


 100 0152 11011F01 		.ascii	"\021\001\037\001\023\024\037\016\033\016\033\004\033"
 100      13141F0E 
 100      1B0E1B04 
 100      1B
 101 015f 0F081F07 		.ascii	"\017\010\037\007\004\037\037\030\037\017\014\037\001"
 101      041F1F18 
 101      1F0F0C1F 
 101      01
 102 016c 1F1C1F14 		.ascii	"\037\034\037\024\037\025\025\016\037\024\010\037\016"
 102      1F15150E 
 102      1F14081F 
 102      0E
 103 0179 1F1B051F 		.ascii	"\037\033\005\037\014\022\036\036\025\035\036\026\014"
 103      0C121E1E 
 103      151D1E16 
 103      0C
 104 0186 1E02021C 		.ascii	"\036\002\002\034\022\034\014\032\024\032\036\032\022"
 104      121C0C1A 
 104      141A1E1A 
 104      12
 105 0193 161E1E10 		.ascii	"\026\036\036\020\036\032\022\032\036\004\032\034\002"
 105      1E1A121A 
 105      1E041A1C 
 105      02
 106 01a0 1E1E041E 		.ascii	"\036\036\004\036\036\010\036\036\022\036\036\002\036"
 106      1E081E1E 
 106      121E1E02 
 106      1E
 107 01ad 1E0A041E 		.ascii	"\036\012\004\036\022\022\002\036\002\026\024\016\014"
 107      1212021E 
 107      0216140E 
 107      0C
 108 01ba 1E0C1A0C 		.ascii	"\036\014\032\014\032\016\010\036\006\004\036\036\030"
 108      1A0E081E 
 108      06041E1E 
 108      18
 109 01c7 1E0E0C1E 		.ascii	"\036\016\014\036\002\036\030\036\024\036\036\030\000"
 109      021E181E 
 109      141E1E18 
 109      00
 110 01d4 12160C1E 		.ascii	"\022\026\014\036\014\036\024\012\036\037\025\025\014"
 110      0C1E140A 
 110      1E1F1515 
 110      0C
 111 01e1 1A140303 		.ascii	"\032\024\003\003\000"
 111      00
 112              		.global	Font_5x7
 113              		.section	.rodata.Font_5x7,"a"
 114              		.align	2
 117              	Font_5x7:
 118 0000 00000000 		.ascii	"\000\000\000\000\000\000O\000\000\000\007\000\007\000"
 118      00004F00 
 118      00000700 
 118      0700
 119 000e 00147F14 		.ascii	"\000\024\177\024\177\024$*\177*\022#\023\010db6IU\""
 119      7F14242A 
 119      7F2A1223 
ARM GAS  C:\Users\SOLDER~1\AppData\Local\Temp\ccg2RcbO.s 			page 5


 119      13086462 
 119      36495522 
 120 0022 40000503 		.ascii	"@\000\005\003\000\000\034\"A\000\000A\"\034\000\000"
 120      00001C22 
 120      41000041 
 120      221C0000 
 121 0032 14083E08 		.ascii	"\024\010>\010\024\010\010>\010\010\240`\000\000\000"
 121      1408083E 
 121      0808A060 
 121      000000
 122 0041 08080808 		.ascii	"\010\010\010\010\010``\000\000\000 \020\010\004\002"
 122      08606000 
 122      00002010 
 122      080402
 123 0050 3E514945 		.ascii	">QIE>\000B\177@\000BaQIF!AEK1\030\024\022\177\020'E"
 123      3E00427F 
 123      40004261 
 123      51494621 
 123      41454B31 
 124 006b 4545393C 		.ascii	"EE9<JII0\001q\011\005\0036III6\006II)\036ll\000\000"
 124      4A494930 
 124      01710905 
 124      03364949 
 124      49360649 
 125 0086 00005636 		.ascii	"\000\000V6\000\000\010\024\"A\000$$$$$\000A\"\024\010"
 125      00000814 
 125      22410024 
 125      24242424 
 125      00412214 
 126 009b 02015109 		.ascii	"\002\001Q\011\0062IyA>~\021\021\021~\177III6>AAA\"\177"
 126      06324979 
 126      413E7E11 
 126      11117E7F 
 126      49494936 
 127 00b5 4141221C 		.ascii	"AA\"\034\177IIIA\177\011\011\011\001>AII:\177\010\010"
 127      7F494949 
 127      417F0909 
 127      09013E41 
 127      49493A7F 
 128 00cb 087F0041 		.ascii	"\010\177\000A\177A\000 @A?\001\177\010\024\"A\177@@"
 128      7F410020 
 128      40413F01 
 128      7F081422 
 128      417F4040 
 129 00df 40407F02 		.ascii	"@@\177\002\014\002\177\177\004\010\020\177>AAA>\177"
 129      0C027F7F 
 129      0408107F 
 129      3E414141 
 129      3E7F
 130 00f1 09090906 		.ascii	"\011\011\011\006>AQ!^\177\011\031)FFIII1\001\001\177"
 130      3E415121 
 130      5E7F0919 
 130      29464649 
 130      49493101 
 131 0107 01013F40 		.ascii	"\001\001?@@@?\037 @ \037?@`@?c\024\010\024c\007\010"
 131      40403F1F 
 131      2040201F 
ARM GAS  C:\Users\SOLDER~1\AppData\Local\Temp\ccg2RcbO.s 			page 6


 131      3F406040 
 131      3F631408 
 132 011f 70080761 		.ascii	"p\010\007aQIEC\177AA\000\000\025\026|\026\025AA\177"
 132      51494543 
 132      7F414100 
 132      0015167C 
 132      16154141 
 133 0134 00000402 		.ascii	"\000\000\004\002\001\002\004@@@@@\001\002\004\000\000"
 133      01020440 
 133      40404040 
 133      01020400 
 133      00
 134 0145 20545454 		.ascii	" TTTx\177DDD88DDD\0008DDH\1778TTT\030\020~\021\001\002"
 134      787F4444 
 134      44383844 
 134      44440038 
 134      4444487F 
 135 0163 0C525252 		.ascii	"\014RRR>\177\010\004\004x\000D}@\000 @@=\000\177\020"
 135      3E7F0804 
 135      04780044 
 135      7D400020 
 135      40403D00 
 136 0179 28440000 		.ascii	"(D\000\000A\177@\000|\004\030\004x|\010\004\004x8DD"
 136      417F4000 
 136      7C041804 
 136      787C0804 
 136      04783844 
 137 018e 44387C14 		.ascii	"D8|\024\024\024\010\010\024\024\030||\010\004\004\010"
 137      14140808 
 137      1414187C 
 137      7C080404 
 137      08
 138 019f 48545454 		.ascii	"HTTT \004?D@ <@@ |\034 @ \034\036 \020 \036\"\024\010"
 138      20043F44 
 138      40203C40 
 138      40207C1C 
 138      2040201C 
 139 01bb 14220648 		.ascii	"\024\"\006HHH>DdTLD\0106A\000\000\000\000\177\000\000"
 139      48483E44 
 139      64544C44 
 139      08364100 
 139      0000007F 
 140 01d1 41360800 		.ascii	"A6\010\000\000\010\010*\034\010~\021\021\021~\177II"
 140      0008082A 
 140      1C087E11 
 140      11117E7F 
 140      4949
 141 01e3 49337F49 		.ascii	"I3\177III6\177\001\001\001\003\340QOA\377\177IIIAw\010"
 141      4949367F 
 141      01010103 
 141      E0514F41 
 141      FF7F4949 
 142 01fb 7F087741 		.ascii	"\177\010wAIII6\177\020\010\004\177|!\022\011|\177\010"
 142      49494936 
 142      7F100804 
 142      7F7C2112 
 142      097C7F08 
ARM GAS  C:\Users\SOLDER~1\AppData\Local\Temp\ccg2RcbO.s 			page 7


 143 020f 14224120 		.ascii	"\024\"A A?\001\177\177\002\014\002\177\177\010\010\010"
 143      413F017F 
 143      7F020C02 
 143      7F7F0808 
 143      08
 144 0220 7F3E4141 		.ascii	"\177>AAA>\177\001\001\001\177\177\011\011\011\006>A"
 144      413E7F01 
 144      01017F7F 
 144      09090906 
 144      3E41
 145 0232 41412201 		.ascii	"AA\"\001\001\177\001\001G(\020\010\007\034\"\177\"\034"
 145      017F0101 
 145      47281008 
 145      071C227F 
 145      221C
 146 0244 63140814 		.ascii	"c\024\010\024c\177@@@\377\007\010\010\010\177\177@\177"
 146      637F4040 
 146      40FF0708 
 146      08087F7F 
 146      407F
 147 0256 407F7F40 		.ascii	"@\177\177@\177@\377\001\177HH0\177H0\000\177\000\177"
 147      7F40FF01 
 147      7F484830 
 147      7F483000 
 147      7F007F
 148 0269 48483022 		.ascii	"HH0\"AII>\177\010>A>F)\031\011\177 TTTx<JJI1|TT(\000"
 148      4149493E 
 148      7F083E41 
 148      3E462919 
 148      097F2054 
 149 028a 7C040404 		.ascii	"|\004\004\004\014\340TLD\3748TTT\030l\020|\020lDDTT"
 149      0CE0544C 
 149      44FC3854 
 149      5454186C 
 149      107C106C 
 150 02a2 287C2010 		.ascii	"(| \020\010||A\"\021||\020(D\000 D<\004||\010\020\010"
 150      087C7C41 
 150      22117C7C 
 150      10284400 
 150      20443C04 
 151 02bb 7C7C1010 		.ascii	"||\020\020\020|8DDD8|\004\004\004||\024\024\024\010"
 151      107C3844 
 151      4444387C 
 151      0404047C 
 151      7C141414 
 152 02d0 38444444 		.ascii	"8DDD(\004\004|\004\004\014PPP<0H\374H0D(\020(D|@@@\374"
 152      2804047C 
 152      04040C50 
 152      50503C30 
 152      48FC4830 
 153 02ee 0C101010 		.ascii	"\014\020\020\020||@|@||@|@\374\004|PP |PP ||PP \000"
 153      7C7C407C 
 153      407C7C40 
 153      7C40FC04 
 153      7C505020 
 154 030c 28445454 		.ascii	"(DTT8|\0208D8\010T4\024|~KJKB8UTU\030\000\006\011\011"
 154      387C1038 
ARM GAS  C:\Users\SOLDER~1\AppData\Local\Temp\ccg2RcbO.s 			page 8


 154      44380854 
 154      34147C7E 
 154      4B4A4B42 
 155 0329 06       		.ascii	"\006"
 156              		.global	solderingiron
 157              		.section	.rodata.solderingiron,"a"
 158              		.align	2
 161              	solderingiron:
 162 0000 C0E03030 		.ascii	"\300\3400000` \000\000\000\000\000\000\000\000\000\000"
 162      30306020 
 162      00000000 
 162      00000000 
 162      0000
 163 0012 000000F8 		.ascii	"\000\000\000\370\370\000\000\000\000\000\000\000\370"
 163      F8000000 
 163      00000000 
 163      F8
 164 001f F8000000 		.ascii	"\370\000\000\000\000\000\000\000\000\000\000\000\000"
 164      00000000 
 164      00000000 
 164      00
 165 002c 00000000 		.ascii	"\000\000\000\000\000\00000\000\000\000\000\000\000\000"
 165      00003030 
 165      00000000 
 165      000000
 166 003b 00000000 		.ascii	"\000\000\000\000\000\000\000\000\000\000\000\000\000"
 166      00000000 
 166      00000000 
 166      00
 167 0048 00000000 		.ascii	"\000\000\000\000\000\000\000\000\000\000\00000\000\000"
 167      00000000 
 167      00000030 
 167      300000
 168 0057 00000000 		.ascii	"\000\000\000\000\000\000\000\000\000\000\000\000\000"
 168      00000000 
 168      00000000 
 168      00
 169 0064 00000000 		.ascii	"\000\000\000\000\000\000\000\000\000\000\000\000\000"
 169      00000000 
 169      00000000 
 169      00
 170 0071 00000000 		.ascii	"\000\000\000\000\000\000\000\000\000\000\000\000\000"
 170      00000000 
 170      00000000 
 170      00
 171 007e 0000C183 		.ascii	"\000\000\301\203\006\004\014\014\214\370p\000x\374\206"
 171      06040C0C 
 171      8CF87000 
 171      78FC86
 172 008d 03030303 		.ascii	"\003\003\003\003\206\374x\000\377\377x\376\206\003\003"
 172      86FC7800 
 172      FFFF78FE 
 172      860303
 173 009c 0386FFFF 		.ascii	"\003\206\377\377\000\000\374\376\2673337><\000\000\377"
 173      0000FCFE 
 173      B7333333 
 173      373E3C00 
ARM GAS  C:\Users\SOLDER~1\AppData\Local\Temp\ccg2RcbO.s 			page 9


 173      00FF
 174 00ae FF060303 		.ascii	"\377\006\003\003\377\377\000\377\377\006\003\003\003"
 174      FFFF00FF 
 174      FF060303 
 174      03
 175 00bb 06FEF800 		.ascii	"\006\376\370\000\0008\374\206\003\003\003\206\377\377"
 175      0038FC86 
 175      03030386 
 175      FFFF
 176 00c9 00000000 		.ascii	"\000\000\000\000\000\000\000\000\000\000\377\377\000"
 176      00000000 
 176      0000FFFF 
 176      00
 177 00d6 00FFFF06 		.ascii	"\000\377\377\006\003\003x\374\206\003\003\003\003\206"
 177      030378FC 
 177      86030303 
 177      0386
 178 00e4 FC780000 		.ascii	"\374x\000\000\377\377\006\003\003\003\006\376\370\000"
 178      FFFF0603 
 178      030306FE 
 178      F800
 179 00f2 00000000 		.ascii	"\000\000\000\000\000\000\000\000\000\000\000\000\000"
 179      00000000 
 179      00000000 
 179      00
 180 00ff 00080909 		.ascii	"\000\010\011\011\013\013\013\011\011\010\010\010\010"
 180      0B0B0B09 
 180      09080808 
 180      08
 181 010c 090B0B0B 		.ascii	"\011\013\013\013\013\011\010\010\010\013\013\010\011"
 181      0B090808 
 181      080B0B08 
 181      09
 182 0119 090B0B0B 		.ascii	"\011\013\013\013\011\013\013\010\010\010\011\013\013"
 182      090B0B08 
 182      0808090B 
 182      0B
 183 0126 0B0B0B09 		.ascii	"\013\013\013\011\011\010\010\013\013\010\010\010\013"
 183      0908080B 
 183      0B080808 
 183      0B
 184 0133 0B080B0B 		.ascii	"\013\010\013\013\010\010\010\010\010\013\013\010\010"
 184      08080808 
 184      080B0B08 
 184      08
 185 0140 00103963 		.ascii	"\000\0209ccc1\037\017\000\000\010\010\010\010\010\010"
 185      6363311F 
 185      0F000008 
 185      08080808 
 185      08
 186 0151 08080B0B 		.ascii	"\010\010\013\013\010\010\013\013\010\010\010\010\010"
 186      08080B0B 
 186      08080808 
 186      08
 187 015e 090B0B0B 		.ascii	"\011\013\013\013\013\011\010\010\010\010\013\013\010"
 187      0B090808 
 187      08080B0B 
ARM GAS  C:\Users\SOLDER~1\AppData\Local\Temp\ccg2RcbO.s 			page 10


 187      08
 188 016b 08080808 		.ascii	"\010\010\010\010\013\013"
 188      0B0B
 189              		.section	.rodata
 190              		.align	2
 191              	.LC0:
 192 0000 5361696E 		.ascii	"Saint Petersburg\000"
 192      74205065 
 192      74657273 
 192      62757267 
 192      00
 193 0011 000000   		.align	2
 194              	.LC1:
 195 0014 656C6563 		.ascii	"electronics lab.\000"
 195      74726F6E 
 195      69637320 
 195      6C61622E 
 195      00
 196 0025 000000   		.align	2
 197              	.LC2:
 198 0028 20202020 		.ascii	"                \000"
 198      20202020 
 198      20202020 
 198      20202020 
 198      00
 199              		.section	.text.GMG12864_logo_demonstration,"ax",%progbits
 200              		.align	1
 201              		.global	GMG12864_logo_demonstration
 202              		.syntax unified
 203              		.thumb
 204              		.thumb_func
 206              	GMG12864_logo_demonstration:
 207              	.LFB68:
 208              		.file 1 "Core/Src/GMG12864_lib.c"
   1:Core/Src/GMG12864_lib.c **** /*
   2:Core/Src/GMG12864_lib.c ****  * GMG12864_lib.c
   3:Core/Src/GMG12864_lib.c ****  *
   4:Core/Src/GMG12864_lib.c ****  *  –í–µ—Ä—Å–∏—è 1.1.(–û–±—â–∞—è –≥—Ä–∞—Ñ–∏—á–µ—Å–∫–∞—è –±–∏–±–ª–∏–æ—Ç–µ–∫–∞ –í–æ–ª–∫–æ–≤–∞ –û–ª–µ–
   5:Core/Src/GMG12864_lib.c ****  *  –ü–µ—Ä–µ–¥–µ–ª–∞–Ω –≤—ã–≤–æ–¥ —Å–∏–º–≤–æ–ª–æ–≤ –Ω–∞ –¥–∏—Å–ø–ª–µ–π. –í –≤–µ—Ä—Å–∏–∏ 1.1. –∏–º–µ
   6:Core/Src/GMG12864_lib.c ****  *
   7:Core/Src/GMG12864_lib.c ****  *  Created on: Aug 16, 2021
   8:Core/Src/GMG12864_lib.c ****  *      Author: Oleg Volkov
   9:Core/Src/GMG12864_lib.c ****  *
  10:Core/Src/GMG12864_lib.c ****  *  YouTube: https://www.youtube.com/channel/UCzZKTNVpcMSALU57G1THoVw
  11:Core/Src/GMG12864_lib.c ****  *  GitHub: https://github.com/Solderingironspb/Lessons-Stm32/blob/master/README.md
  12:Core/Src/GMG12864_lib.c ****  *  –ì—Ä—É–ø–ø–∞ –í–ö: https://vk.com/solderingiron.stm32
  13:Core/Src/GMG12864_lib.c ****  *
  14:Core/Src/GMG12864_lib.c ****  *  –ö–æ–¥–∏—Ä–æ–≤–∫–∞ UTF-8 Basic Latin: https://www.utf8-chartable.de/unicode-utf8-table.pl
  15:Core/Src/GMG12864_lib.c ****  *  –ö–æ–¥–∏—Ä–æ–≤–∫–∞ UTF-8 Cyrillic: https://www.utf8-chartable.de/unicode-utf8-table.pl?start=10
  16:Core/Src/GMG12864_lib.c ****  *  –ü—Ä–æ–≥—Ä–∞–º–º–∞ –¥–ª—è –∫–æ–Ω–≤–µ—Ä—Ç–∞—Ü–∏–∏ –∏–∑–æ–±—Ä–∞–∂–µ–Ω–∏—è.bmp –≤ bitmap: http://e
  17:Core/Src/GMG12864_lib.c ****  */
  18:Core/Src/GMG12864_lib.c **** 
  19:Core/Src/GMG12864_lib.c **** #include "GMG12864_lib.h"
  20:Core/Src/GMG12864_lib.c **** 
  21:Core/Src/GMG12864_lib.c **** /*-----------------------------------–ù–∞—Å—Ç—Ä–æ–π–∫–∏----------------------------------*/
  22:Core/Src/GMG12864_lib.c **** #if defined (USE_HAL)
  23:Core/Src/GMG12864_lib.c **** extern SPI_HandleTypeDef hspi1; //–ò—Å–ø–æ–ª—å–∑—É–µ–º–∞—è —à–∏–Ω–∞ spi
ARM GAS  C:\Users\SOLDER~1\AppData\Local\Temp\ccg2RcbO.s 			page 11


  24:Core/Src/GMG12864_lib.c **** #endif
  25:Core/Src/GMG12864_lib.c **** 
  26:Core/Src/GMG12864_lib.c **** char tx_buffer[128] = { 0, }; //–ë—É—Ñ–µ—Ä –¥–ª—è –æ—Ç–ø—Ä–∞–≤–∫–∏ —Ç–µ–∫—Å—Ç–∞ –Ω–∞ –¥–∏—Å–ø–ª–µ–π
  27:Core/Src/GMG12864_lib.c **** uint8_t Frame_buffer[1024] = { 0, }; //–ë—É—Ñ–µ—Ä –∫–∞–¥—Ä–∞
  28:Core/Src/GMG12864_lib.c **** uint8_t GMG12864_width = 128; //–®–∏—Ä–∏–Ω–∞ –¥–∏—Å–ø–ª–µ—è –≤ –ø–∏–∫—Å–µ–ª—è—Ö
  29:Core/Src/GMG12864_lib.c **** uint8_t GMG12864_height = 64; //–í—ã—Å–æ—Ç–∞ –¥–∏—Å–ø–ª–µ—è –≤ –ø–∏–∫—Å–µ–ª—è—Ö
  30:Core/Src/GMG12864_lib.c **** 
  31:Core/Src/GMG12864_lib.c **** //–î–ª—è —Ä–∞–±–æ—Ç—ã –æ—Ç—Ä–∏—Å–æ–≤–∫–∏ –≥—Ä–∞—Ñ–∏–∫–∞:
  32:Core/Src/GMG12864_lib.c **** uint8_t cnt = 0; //—Å—á–µ—Ç—á–∏–∫ –Ω–∞–∫–æ–ø–ª–µ–Ω–∏—è –∑–Ω–∞—á–µ–Ω–∏–π –≤ –æ–∫–Ω–µ –≥—Ä–∞—Ñ–∏–∫–∞
  33:Core/Src/GMG12864_lib.c **** const uint8_t size_array = 100; //—Ä–∞–∑–º–µ—Ä –º–∞—Å—Å–∏–≤–∞. –í –Ω–∞—à–µ–º —Å–ª—É—á–∞–µ —à–∏—Ä–∏–
  34:Core/Src/GMG12864_lib.c **** uint8_t arr[100] = { 0, }; //–∑–Ω–∞—á–µ–Ω–∏—è –Ω–∞ –≥—Ä–∞—Ñ–∏–∫–µ. –ó–∞–ø–æ–ª–Ω—è—é—Ç—Å—è –≤ –æ–ø—Ä
  35:Core/Src/GMG12864_lib.c **** bool array_is_full = 0; //–∑–Ω–∞—á–µ–Ω–∏—è –∑–∞–ø–æ–ª–Ω–∏–ª–∏ –º–∞—Å—Å–∏–≤, –º–æ–∂–Ω–æ —Å–¥–≤–∏–≥–∞
  36:Core/Src/GMG12864_lib.c **** 
  37:Core/Src/GMG12864_lib.c **** /*-----------------------------------–ù–∞—Å—Ç—Ä–æ–π–∫–∏----------------------------------*/
  38:Core/Src/GMG12864_lib.c **** 
  39:Core/Src/GMG12864_lib.c **** /*------------------------------–î–æ–±–∞–≤–∏—Ç—å –≤ main.c-------------------------------*/
  40:Core/Src/GMG12864_lib.c **** //extern char tx_buffer[128]; //–ë—É—Ñ–µ—Ä –¥–ª—è –æ—Ç–ø—Ä–∞–≤–∫–∏ —Ç–µ–∫—Å—Ç–∞ –Ω–∞ –¥–∏—Å–ø–ª–µ–π
  41:Core/Src/GMG12864_lib.c **** //extern uint8_t Frame_buffer[1024]; //–ë—É—Ñ–µ—Ä –∫–∞–¥—Ä–∞
  42:Core/Src/GMG12864_lib.c **** //–ï—Å–ª–∏ –ø–ª–∞–Ω–∏—Ä—É–µ—Ç—Å—è –≤—ã–≤–æ–¥–∏—Ç—å –æ–¥–∏–Ω –≥—Ä–∞—Ñ–∏–∫, —Ç–æ:
  43:Core/Src/GMG12864_lib.c **** //extern uint8_t cnt;//—Å—á–µ—Ç—á–∏–∫ –Ω–∞–∫–æ–ø–ª–µ–Ω–∏—è –∑–Ω–∞—á–µ–Ω–∏–π –≤ –æ–∫–Ω–µ –≥—Ä–∞—Ñ–∏–
  44:Core/Src/GMG12864_lib.c **** //extern const uint8_t size_array;//—Ä–∞–∑–º–µ—Ä –º–∞—Å—Å–∏–≤–∞. –í –Ω–∞—à–µ–º —Å–ª—É—á–∞–µ —à–∏—Ä–
  45:Core/Src/GMG12864_lib.c **** //extern uint8_t arr[100];//–∑–Ω–∞—á–µ–Ω–∏—è –Ω–∞ –≥—Ä–∞—Ñ–∏–∫–µ. –ó–∞–ø–æ–ª–Ω—è—é—Ç—Å—è –≤ –æ–ø—Ä–
  46:Core/Src/GMG12864_lib.c **** //extern bool array_is_full;//–∑–Ω–∞—á–µ–Ω–∏—è –∑–∞–ø–æ–ª–Ω–∏–ª–∏ –º–∞—Å—Å–∏–≤, –º–æ–∂–Ω–æ —Å–¥–≤–∏
  47:Core/Src/GMG12864_lib.c **** /*------------------------------–î–æ–±–∞–≤–∏—Ç—å –≤ main.c-------------------------------*/
  48:Core/Src/GMG12864_lib.c **** 
  49:Core/Src/GMG12864_lib.c **** /*-----------------------------------–®—Ä–∏—Ñ—Ç 3*5----------------------------------*/
  50:Core/Src/GMG12864_lib.c **** const uint8_t Font_3x5[] = { 0x00, 0x00, 0x00, //0/ --> space     20
  51:Core/Src/GMG12864_lib.c **** 		0x17, 0x00, 0x00, //1/ --> !         21
  52:Core/Src/GMG12864_lib.c **** 		0x03, 0x00, 0x03, //2/ --> "         22 –∏ —Ç.–¥.
  53:Core/Src/GMG12864_lib.c **** 		0xFF, 0x0A, 0xFF, //3/ --> #
  54:Core/Src/GMG12864_lib.c **** 		0x17, 0xFF, 0x1D, //4/ --> $
  55:Core/Src/GMG12864_lib.c **** 		0x09, 0x04, 0x12, //5/ --> %
  56:Core/Src/GMG12864_lib.c **** 		0x0E, 0x1B, 0x0A, //6/ --> &
  57:Core/Src/GMG12864_lib.c **** 		0x03, 0x00, 0x00, //7/ --> '
  58:Core/Src/GMG12864_lib.c **** 		0x0E, 0x11, 0x00, //8/ --> (
  59:Core/Src/GMG12864_lib.c **** 		0x11, 0x0E, 0x00, //9/ --> )
  60:Core/Src/GMG12864_lib.c **** 		0x04, 0x0A, 0x04, //10/ --> *
  61:Core/Src/GMG12864_lib.c **** 		0x04, 0x0E, 0x04, //11/ --> +
  62:Core/Src/GMG12864_lib.c **** 		0x10, 0x18, 0x00, //12/ --> ,
  63:Core/Src/GMG12864_lib.c **** 		0x04, 0x04, 0x04, //13/ --> -
  64:Core/Src/GMG12864_lib.c **** 		0x10, 0x00, 0x00, //14/ --> .
  65:Core/Src/GMG12864_lib.c **** 		0x08, 0x04, 0x02, //15/ --> /
  66:Core/Src/GMG12864_lib.c **** 		0xFF, 0x11, 0xFF, //16/ --> 0
  67:Core/Src/GMG12864_lib.c **** 		0x11, 0xFF, 0x10, //17/ --> 1
  68:Core/Src/GMG12864_lib.c **** 		0x1D, 0x15, 0x17, //18/ --> 2
  69:Core/Src/GMG12864_lib.c **** 		0x15, 0x15, 0xFF, //19/ --> 3
  70:Core/Src/GMG12864_lib.c **** 		0x07, 0x04, 0xFF, //20/ --> 4
  71:Core/Src/GMG12864_lib.c **** 		0x17, 0x15, 0x1D, //21/ --> 5
  72:Core/Src/GMG12864_lib.c **** 		0xFF, 0x15, 0x1D, //22/ --> 6
  73:Core/Src/GMG12864_lib.c **** 		0x01, 0x01, 0xFF, //23/ --> 7
  74:Core/Src/GMG12864_lib.c **** 		0xFF, 0x15, 0xFF, //24/ --> 8
  75:Core/Src/GMG12864_lib.c **** 		0x17, 0x15, 0x1F, //25/ --> 9
  76:Core/Src/GMG12864_lib.c **** 		0x0A, 0x00, 0x00, //26/ --> :
  77:Core/Src/GMG12864_lib.c **** 		0x10, 0x0A, 0x00, //27/ --> ;
  78:Core/Src/GMG12864_lib.c **** 		0x04, 0x0A, 0x00, //28/ --> <
  79:Core/Src/GMG12864_lib.c **** 		0x0A, 0x0A, 0x0A, //29/ --> =
  80:Core/Src/GMG12864_lib.c **** 		0x0A, 0x04, 0x00, //30/ --> >
ARM GAS  C:\Users\SOLDER~1\AppData\Local\Temp\ccg2RcbO.s 			page 12


  81:Core/Src/GMG12864_lib.c **** 		0x01, 0x15, 0x07, //31/ --> ?
  82:Core/Src/GMG12864_lib.c **** 		0x1F, 0x11, 0x17, //32/ --> @
  83:Core/Src/GMG12864_lib.c **** 		0x1F, 0x05, 0x1F, //33/ --> A
  84:Core/Src/GMG12864_lib.c **** 		0x1F, 0x15, 0x1B, //34/ --> B
  85:Core/Src/GMG12864_lib.c **** 		0x1F, 0x11, 0x11, //35/ --> C
  86:Core/Src/GMG12864_lib.c **** 		0x1F, 0x11, 0x0E, //36/ --> D
  87:Core/Src/GMG12864_lib.c **** 		0x1F, 0x15, 0x15, //37/ --> E
  88:Core/Src/GMG12864_lib.c **** 		0x1F, 0x05, 0x05, //38/ --> F
  89:Core/Src/GMG12864_lib.c **** 		0x1F, 0x11, 0x1D, //39/ --> G
  90:Core/Src/GMG12864_lib.c **** 		0x1F, 0x04, 0x1F, //40/ --> H
  91:Core/Src/GMG12864_lib.c **** 		0x11, 0x1F, 0x11, //41/ --> I
  92:Core/Src/GMG12864_lib.c **** 		0x18, 0x10, 0x1F, //42/ --> J
  93:Core/Src/GMG12864_lib.c **** 		0x1F, 0x04, 0x1B, //43/ --> K
  94:Core/Src/GMG12864_lib.c **** 		0x1F, 0x10, 0x10, //44/ --> L
  95:Core/Src/GMG12864_lib.c **** 		0x1F, 0x02, 0x1F, //45/ --> M
  96:Core/Src/GMG12864_lib.c **** 		0x1F, 0x01, 0x1F, //46/ --> N
  97:Core/Src/GMG12864_lib.c **** 		0x1F, 0x11, 0x1F, //47/ --> O
  98:Core/Src/GMG12864_lib.c **** 		0x1F, 0x05, 0x07, //48/ --> P
  99:Core/Src/GMG12864_lib.c **** 		0x0F, 0x19, 0x0F, //49/ --> Q
 100:Core/Src/GMG12864_lib.c **** 		0x1F, 0x05, 0x1B, //50/ --> R
 101:Core/Src/GMG12864_lib.c **** 		0x17, 0x15, 0x1D, //51/ --> S
 102:Core/Src/GMG12864_lib.c **** 		0x01, 0x1F, 0x01, //52/ --> T
 103:Core/Src/GMG12864_lib.c **** 		0x1F, 0x10, 0x1F, //53/ --> U
 104:Core/Src/GMG12864_lib.c **** 		0x0F, 0x10, 0x0F, //54/ --> V
 105:Core/Src/GMG12864_lib.c **** 		0x1F, 0x08, 0x1F, //55/ --> W
 106:Core/Src/GMG12864_lib.c **** 		0x1B, 0x04, 0x1B, //56/ --> X
 107:Core/Src/GMG12864_lib.c **** 		0x03, 0x1C, 0x03, //57/ --> Y
 108:Core/Src/GMG12864_lib.c **** 		0x19, 0x15, 0x13, //58/ --> Z
 109:Core/Src/GMG12864_lib.c **** 		0x1F, 0x11, 0x00, //59/ --> [
 110:Core/Src/GMG12864_lib.c **** 		0x02, 0x04, 0x08, //60/ --> '\'
 111:Core/Src/GMG12864_lib.c **** 		0x11, 0x1F, 0x00, //61/ --> ]
 112:Core/Src/GMG12864_lib.c **** 		0x02, 0x01, 0x02, //62/ --> ^
 113:Core/Src/GMG12864_lib.c **** 		0x10, 0x10, 0x10, //63/ --> _
 114:Core/Src/GMG12864_lib.c **** 		0x01, 0x02, 0x00, //64/ --> `
 115:Core/Src/GMG12864_lib.c **** 		0x0C, 0x12, 0x1E, //65/ --> a
 116:Core/Src/GMG12864_lib.c **** 		0x1E, 0x14, 0x08, //66/ --> b
 117:Core/Src/GMG12864_lib.c **** 		0x1C, 0x14, 0x14, //67/ --> c
 118:Core/Src/GMG12864_lib.c **** 		0x0C, 0x12, 0x1F, //68/ --> d
 119:Core/Src/GMG12864_lib.c **** 		0x0C, 0x1A, 0x14, //69/ --> e
 120:Core/Src/GMG12864_lib.c **** 		0x04, 0x1F, 0x05, //70/ --> f
 121:Core/Src/GMG12864_lib.c **** 		0x17, 0x15, 0x0F, //71/ --> g
 122:Core/Src/GMG12864_lib.c **** 		0x1F, 0x02, 0x1C, //72/ --> h
 123:Core/Src/GMG12864_lib.c **** 		0x00, 0x1D, 0x00, //73/ --> i
 124:Core/Src/GMG12864_lib.c **** 		0x10, 0x0D, 0x00, //74/ --> j
 125:Core/Src/GMG12864_lib.c **** 		0x1F, 0x04, 0x1A, //75/ --> k
 126:Core/Src/GMG12864_lib.c **** 		0x01, 0x1F, 0x00, //76/ --> l
 127:Core/Src/GMG12864_lib.c **** 		0x1E, 0x04, 0x1E, //77/ --> m
 128:Core/Src/GMG12864_lib.c **** 		0x1E, 0x02, 0x1E, //78/ --> n
 129:Core/Src/GMG12864_lib.c **** 		0x1E, 0x12, 0x1E, //79/ --> o
 130:Core/Src/GMG12864_lib.c **** 		0x1E, 0x0A, 0x04, //80/ --> p
 131:Core/Src/GMG12864_lib.c **** 		0x04, 0x0A, 0x1E, //81/ --> q
 132:Core/Src/GMG12864_lib.c **** 		0x1E, 0x02, 0x06, //82/ --> r
 133:Core/Src/GMG12864_lib.c **** 		0x14, 0x12, 0x0A, //83/ --> s
 134:Core/Src/GMG12864_lib.c **** 		0x02, 0x1F, 0x12, //84/ --> t
 135:Core/Src/GMG12864_lib.c **** 		0x1E, 0x10, 0x1E, //85/ --> u
 136:Core/Src/GMG12864_lib.c **** 		0x0E, 0x10, 0x0E, //86/ --> v
 137:Core/Src/GMG12864_lib.c **** 		0x1E, 0x08, 0x1E, //87/ --> w
ARM GAS  C:\Users\SOLDER~1\AppData\Local\Temp\ccg2RcbO.s 			page 13


 138:Core/Src/GMG12864_lib.c **** 		0x1A, 0x04, 0x1A, //88/ --> x
 139:Core/Src/GMG12864_lib.c **** 		0x13, 0x14, 0x0F, //89/ --> y
 140:Core/Src/GMG12864_lib.c **** 		0x1A, 0x12, 0x16, //90/ --> z
 141:Core/Src/GMG12864_lib.c **** 		0x04, 0x1F, 0x11, //91/ --> {
 142:Core/Src/GMG12864_lib.c **** 		0x00, 0x1F, 0x00, //92/ --> |
 143:Core/Src/GMG12864_lib.c **** 		0x11, 0x1F, 0x04, //93/ --> }
 144:Core/Src/GMG12864_lib.c **** 		0x0C, 0x04, 0x06, //94/ --> ~
 145:Core/Src/GMG12864_lib.c **** 		0x1F, 0x05, 0x1F, //95/ --> –ê
 146:Core/Src/GMG12864_lib.c **** 		0x1F, 0x15, 0x1D, //96/ --> –ë
 147:Core/Src/GMG12864_lib.c **** 		0x1F, 0x15, 0x1B, //97/ --> –í
 148:Core/Src/GMG12864_lib.c **** 		0x1F, 0x01, 0x01, //98/ --> –ì
 149:Core/Src/GMG12864_lib.c **** 		0x1E, 0x11, 0x1E, //99/ --> –î
 150:Core/Src/GMG12864_lib.c **** 		0x1F, 0x15, 0x15, //100/ --> –ï
 151:Core/Src/GMG12864_lib.c **** 		0x1B, 0x1F, 0x1B, //101/ --> –ñ
 152:Core/Src/GMG12864_lib.c **** 		0x15, 0x15, 0x1B, //102/ --> –ó
 153:Core/Src/GMG12864_lib.c **** 		0x1F, 0x10, 0x1F, //103/ --> –ò
 154:Core/Src/GMG12864_lib.c **** 		0x1D, 0x11, 0x1D, //104/ --> –ô
 155:Core/Src/GMG12864_lib.c **** 		0x1F, 0x04, 0x1B, //105/ --> –ö
 156:Core/Src/GMG12864_lib.c **** 		0x1E, 0x01, 0x1F, //106/ --> –õ
 157:Core/Src/GMG12864_lib.c **** 		0x1F, 0x02, 0x1F, //107/ --> –ú
 158:Core/Src/GMG12864_lib.c **** 		0x1F, 0x04, 0x1F, //108/ --> –ù
 159:Core/Src/GMG12864_lib.c **** 		0x1F, 0x11, 0x1F, //109/ --> –û
 160:Core/Src/GMG12864_lib.c **** 		0x1F, 0x01, 0x1F, //110/ --> –ü
 161:Core/Src/GMG12864_lib.c **** 		0x1F, 0x05, 0x07, //111/ --> –†
 162:Core/Src/GMG12864_lib.c **** 		0x1F, 0x11, 0x11, //112/ --> –°
 163:Core/Src/GMG12864_lib.c **** 		0x01, 0x1F, 0x01, //113/ --> –¢
 164:Core/Src/GMG12864_lib.c **** 		0x13, 0x14, 0x1F, //114/ --> –£
 165:Core/Src/GMG12864_lib.c **** 		0x0E, 0x1B, 0x0E, //115/ --> –§
 166:Core/Src/GMG12864_lib.c **** 		0x1B, 0x04, 0x1B, //116/ --> –•
 167:Core/Src/GMG12864_lib.c **** 		0x0F, 0x08, 0x1F, //117/ --> –¶
 168:Core/Src/GMG12864_lib.c **** 		0x07, 0x04, 0x1F, //118/ --> –ß
 169:Core/Src/GMG12864_lib.c **** 		0x1F, 0x18, 0x1F, //119/ --> –®
 170:Core/Src/GMG12864_lib.c **** 		0x0F, 0x0C, 0x1F, //120/ --> –©
 171:Core/Src/GMG12864_lib.c **** 		0x01, 0x1F, 0x1C, //121/ --> –™
 172:Core/Src/GMG12864_lib.c **** 		0x1F, 0x14, 0x1F, //122/ --> –´
 173:Core/Src/GMG12864_lib.c **** 		0x15, 0x15, 0x0E, //123/ --> –≠
 174:Core/Src/GMG12864_lib.c **** 		0x1F, 0x14, 0x08, //124/ --> –¨
 175:Core/Src/GMG12864_lib.c **** 		0x1F, 0x0E, 0x1F, //125/ --> –Æ
 176:Core/Src/GMG12864_lib.c **** 		0x1B, 0x05, 0x1F, //126/ --> –Ø
 177:Core/Src/GMG12864_lib.c **** 		0x0C, 0x12, 0x1E, //127/ --> a
 178:Core/Src/GMG12864_lib.c **** 		0x1E, 0x15, 0x1D, //128/ --> –±
 179:Core/Src/GMG12864_lib.c **** 		0x1E, 0x16, 0x0C, //129/ --> –≤
 180:Core/Src/GMG12864_lib.c **** 		0x1E, 0x02, 0x02, //130/ --> –≥
 181:Core/Src/GMG12864_lib.c **** 		0x1C, 0x12, 0x1C, //131/ --> –¥
 182:Core/Src/GMG12864_lib.c **** 		0x0C, 0x1A, 0x14, //132/ --> –µ
 183:Core/Src/GMG12864_lib.c **** 		0x1A, 0x1E, 0x1A, //133/ --> –∂
 184:Core/Src/GMG12864_lib.c **** 		0x12, 0x16, 0x1E, //134/ --> –∑
 185:Core/Src/GMG12864_lib.c **** 		0x1E, 0x10, 0x1E, //135/ --> –∏
 186:Core/Src/GMG12864_lib.c **** 		0x1A, 0x12, 0x1A, //136/ --> –π
 187:Core/Src/GMG12864_lib.c **** 		0x1E, 0x04, 0x1A, //137/ --> –∫
 188:Core/Src/GMG12864_lib.c **** 		0x1C, 0x02, 0x1E, //138/ --> –ª
 189:Core/Src/GMG12864_lib.c **** 		0x1E, 0x04, 0x1E, //139/ --> –º
 190:Core/Src/GMG12864_lib.c **** 		0x1E, 0x08, 0x1E, //140/ --> –Ω
 191:Core/Src/GMG12864_lib.c **** 		0x1E, 0x12, 0x1E, //141/ --> –æ
 192:Core/Src/GMG12864_lib.c **** 		0x1E, 0x02, 0x1E, //142/ --> –ø
 193:Core/Src/GMG12864_lib.c **** 		0x1E, 0x0A, 0x04, //143/ --> —Ä
 194:Core/Src/GMG12864_lib.c **** 		0x1E, 0x12, 0x12, //144/ --> —Å
ARM GAS  C:\Users\SOLDER~1\AppData\Local\Temp\ccg2RcbO.s 			page 14


 195:Core/Src/GMG12864_lib.c **** 		0x02, 0x1E, 0x02, //145/ --> —Ç
 196:Core/Src/GMG12864_lib.c **** 		0x16, 0x14, 0x0E, //146/ --> —É
 197:Core/Src/GMG12864_lib.c **** 		0x0C, 0x1E, 0x0C, //147/ --> —Ñ
 198:Core/Src/GMG12864_lib.c **** 		0x1A, 0x0C, 0x1A, //148/ --> —Ö
 199:Core/Src/GMG12864_lib.c **** 		0x0E, 0x08, 0x1E, //149/ --> —Ü
 200:Core/Src/GMG12864_lib.c **** 		0x06, 0x04, 0x1E, //150/ --> —á
 201:Core/Src/GMG12864_lib.c **** 		0x1E, 0x18, 0x1E, //151/ --> —à
 202:Core/Src/GMG12864_lib.c **** 		0x0E, 0x0C, 0x1E, //152/ --> —â
 203:Core/Src/GMG12864_lib.c **** 		0x02, 0x1E, 0x18, //153/ --> —ä
 204:Core/Src/GMG12864_lib.c **** 		0x1E, 0x14, 0x1E, //154/ --> —ã
 205:Core/Src/GMG12864_lib.c **** 		0x1E, 0x18, 0x00, //155/ --> —å
 206:Core/Src/GMG12864_lib.c **** 		0x12, 0x16, 0x0C, //156/ --> —ç
 207:Core/Src/GMG12864_lib.c **** 		0x1E, 0x0C, 0x1E, //157/ --> —é
 208:Core/Src/GMG12864_lib.c **** 		0x14, 0x0A, 0x1E, //158/ --> —è
 209:Core/Src/GMG12864_lib.c **** 		0x1F, 0x15, 0x15, //159/ --> –Å
 210:Core/Src/GMG12864_lib.c **** 		0x0C, 0x1A, 0x14, //160/ --> —ë
 211:Core/Src/GMG12864_lib.c **** 		0x03, 0x03, 0x00, //161/ --> ¬∞
 212:Core/Src/GMG12864_lib.c **** 		};
 213:Core/Src/GMG12864_lib.c **** /*-----------------------------------–®—Ä–∏—Ñ—Ç 3*5----------------------------------*/
 214:Core/Src/GMG12864_lib.c **** 
 215:Core/Src/GMG12864_lib.c **** /*-----------------------------------–®—Ä–∏—Ñ—Ç 5*7----------------------------------*/
 216:Core/Src/GMG12864_lib.c **** const uint8_t Font_5x7[] = { 0x00, 0x00, 0x00, 0x00, 0x00, //0/ --> space     20
 217:Core/Src/GMG12864_lib.c **** 		0x00, 0x4F, 0x00, 0x00, 0x00, //1/ --> !         21
 218:Core/Src/GMG12864_lib.c **** 		0x07, 0x00, 0x07, 0x00, 0x00, //2/ --> "         22 –∏ —Ç.–¥.
 219:Core/Src/GMG12864_lib.c **** 		0x14, 0x7F, 0x14, 0x7F, 0x14, //3/ --> #
 220:Core/Src/GMG12864_lib.c **** 		0x24, 0x2A, 0x7F, 0x2A, 0x12, //4/ --> $
 221:Core/Src/GMG12864_lib.c **** 		0x23, 0x13, 0x08, 0x64, 0x62, //5/ --> %
 222:Core/Src/GMG12864_lib.c **** 		0x36, 0x49, 0x55, 0x22, 0x40, //6/ --> &
 223:Core/Src/GMG12864_lib.c **** 		0x00, 0x05, 0x03, 0x00, 0x00, //7/ --> '
 224:Core/Src/GMG12864_lib.c **** 		0x1C, 0x22, 0x41, 0x00, 0x00, //8/ --> (
 225:Core/Src/GMG12864_lib.c **** 		0x41, 0x22, 0x1C, 0x00, 0x00, //9/ --> )
 226:Core/Src/GMG12864_lib.c **** 		0x14, 0x08, 0x3E, 0x08, 0x14, //10/ --> *
 227:Core/Src/GMG12864_lib.c **** 		0x08, 0x08, 0x3E, 0x08, 0x08, //11/ --> +
 228:Core/Src/GMG12864_lib.c **** 		0xA0, 0x60, 0x00, 0x00, 0x00, //12/ --> ,
 229:Core/Src/GMG12864_lib.c **** 		0x08, 0x08, 0x08, 0x08, 0x08, //13/ --> -
 230:Core/Src/GMG12864_lib.c **** 		0x60, 0x60, 0x00, 0x00, 0x00, //14/ --> .
 231:Core/Src/GMG12864_lib.c **** 		0x20, 0x10, 0x08, 0x04, 0x02, //15/ --> /
 232:Core/Src/GMG12864_lib.c **** 		0x3E, 0x51, 0x49, 0x45, 0x3E, //16/ --> 0
 233:Core/Src/GMG12864_lib.c **** 		0x00, 0x42, 0x7F, 0x40, 0x00, //17/ --> 1
 234:Core/Src/GMG12864_lib.c **** 		0x42, 0x61, 0x51, 0x49, 0x46, //18/ --> 2
 235:Core/Src/GMG12864_lib.c **** 		0x21, 0x41, 0x45, 0x4B, 0x31, //19/ --> 3
 236:Core/Src/GMG12864_lib.c **** 		0x18, 0x14, 0x12, 0x7F, 0x10, //20/ --> 4
 237:Core/Src/GMG12864_lib.c **** 		0x27, 0x45, 0x45, 0x45, 0x39, //21/ --> 5
 238:Core/Src/GMG12864_lib.c **** 		0x3C, 0x4A, 0x49, 0x49, 0x30, //22/ --> 6
 239:Core/Src/GMG12864_lib.c **** 		0x01, 0x71, 0x09, 0x05, 0x03, //23/ --> 7
 240:Core/Src/GMG12864_lib.c **** 		0x36, 0x49, 0x49, 0x49, 0x36, //24/ --> 8
 241:Core/Src/GMG12864_lib.c **** 		0x06, 0x49, 0x49, 0x29, 0x1E, //25/ --> 9
 242:Core/Src/GMG12864_lib.c **** 		0x6C, 0x6C, 0x00, 0x00, 0x00, //26/ --> :
 243:Core/Src/GMG12864_lib.c **** 		0x00, 0x56, 0x36, 0x00, 0x00, //27/ --> ;
 244:Core/Src/GMG12864_lib.c **** 		0x08, 0x14, 0x22, 0x41, 0x00, //28/ --> <
 245:Core/Src/GMG12864_lib.c **** 		0x24, 0x24, 0x24, 0x24, 0x24, //29/ --> =
 246:Core/Src/GMG12864_lib.c **** 		0x00, 0x41, 0x22, 0x14, 0x08, //30/ --> >
 247:Core/Src/GMG12864_lib.c **** 		0x02, 0x01, 0x51, 0x09, 0x06, //31/ --> ?
 248:Core/Src/GMG12864_lib.c **** 		0x32, 0x49, 0x79, 0x41, 0x3E, //32/ --> @
 249:Core/Src/GMG12864_lib.c **** 		0x7E, 0x11, 0x11, 0x11, 0x7E, //33/ --> A
 250:Core/Src/GMG12864_lib.c **** 		0x7F, 0x49, 0x49, 0x49, 0x36, //34/ --> B
 251:Core/Src/GMG12864_lib.c **** 		0x3E, 0x41, 0x41, 0x41, 0x22, //35/ --> C
ARM GAS  C:\Users\SOLDER~1\AppData\Local\Temp\ccg2RcbO.s 			page 15


 252:Core/Src/GMG12864_lib.c **** 		0x7F, 0x41, 0x41, 0x22, 0x1C, //36/ --> D
 253:Core/Src/GMG12864_lib.c **** 		0x7F, 0x49, 0x49, 0x49, 0x41, //37/ --> E
 254:Core/Src/GMG12864_lib.c **** 		0x7F, 0x09, 0x09, 0x09, 0x01, //38/ --> F
 255:Core/Src/GMG12864_lib.c **** 		0x3E, 0x41, 0x49, 0x49, 0x3A, //39/ --> G
 256:Core/Src/GMG12864_lib.c **** 		0x7F, 0x08, 0x08, 0x08, 0x7F, //40/ --> H
 257:Core/Src/GMG12864_lib.c **** 		0x00, 0x41, 0x7F, 0x41, 0x00, //41/ --> I
 258:Core/Src/GMG12864_lib.c **** 		0x20, 0x40, 0x41, 0x3F, 0x01, //42/ --> J
 259:Core/Src/GMG12864_lib.c **** 		0x7F, 0x08, 0x14, 0x22, 0x41, //43/ --> K
 260:Core/Src/GMG12864_lib.c **** 		0x7F, 0x40, 0x40, 0x40, 0x40, //44/ --> L
 261:Core/Src/GMG12864_lib.c **** 		0x7F, 0x02, 0x0C, 0x02, 0x7F, //45/ --> M
 262:Core/Src/GMG12864_lib.c **** 		0x7F, 0x04, 0x08, 0x10, 0x7F, //46/ --> N
 263:Core/Src/GMG12864_lib.c **** 		0x3E, 0x41, 0x41, 0x41, 0x3E, //47/ --> O
 264:Core/Src/GMG12864_lib.c **** 		0x7F, 0x09, 0x09, 0x09, 0x06, //48/ --> P
 265:Core/Src/GMG12864_lib.c **** 		0x3E, 0x41, 0x51, 0x21, 0x5E, //49/ --> Q
 266:Core/Src/GMG12864_lib.c **** 		0x7F, 0x09, 0x19, 0x29, 0x46, //50/ --> R
 267:Core/Src/GMG12864_lib.c **** 		0x46, 0x49, 0x49, 0x49, 0x31, //51/ --> S
 268:Core/Src/GMG12864_lib.c **** 		0x01, 0x01, 0x7F, 0x01, 0x01, //52/ --> T
 269:Core/Src/GMG12864_lib.c **** 		0x3F, 0x40, 0x40, 0x40, 0x3F, //53/ --> U
 270:Core/Src/GMG12864_lib.c **** 		0x1F, 0x20, 0x40, 0x20, 0x1F, //54/ --> V
 271:Core/Src/GMG12864_lib.c **** 		0x3F, 0x40, 0x60, 0x40, 0x3F, //55/ --> W
 272:Core/Src/GMG12864_lib.c **** 		0x63, 0x14, 0x08, 0x14, 0x63, //56/ --> X
 273:Core/Src/GMG12864_lib.c **** 		0x07, 0x08, 0x70, 0x08, 0x07, //57/ --> Y
 274:Core/Src/GMG12864_lib.c **** 		0x61, 0x51, 0x49, 0x45, 0x43, //58/ --> Z
 275:Core/Src/GMG12864_lib.c **** 		0x7F, 0x41, 0x41, 0x00, 0x00, //59/ --> [
 276:Core/Src/GMG12864_lib.c **** 		0x15, 0x16, 0x7C, 0x16, 0x15, //60/ --> '\'
 277:Core/Src/GMG12864_lib.c **** 		0x41, 0x41, 0x7F, 0x00, 0x00, //61/ --> ]
 278:Core/Src/GMG12864_lib.c **** 		0x04, 0x02, 0x01, 0x02, 0x04, //62/ --> ^
 279:Core/Src/GMG12864_lib.c **** 		0x40, 0x40, 0x40, 0x40, 0x40, //63/ --> _
 280:Core/Src/GMG12864_lib.c **** 		0x01, 0x02, 0x04, 0x00, 0x00, //64/ --> `
 281:Core/Src/GMG12864_lib.c **** 		0x20, 0x54, 0x54, 0x54, 0x78, //65/ --> a
 282:Core/Src/GMG12864_lib.c **** 		0x7F, 0x44, 0x44, 0x44, 0x38, //66/ --> b
 283:Core/Src/GMG12864_lib.c **** 		0x38, 0x44, 0x44, 0x44, 0x00, //67/ --> c
 284:Core/Src/GMG12864_lib.c **** 		0x38, 0x44, 0x44, 0x48, 0x7F, //68/ --> d
 285:Core/Src/GMG12864_lib.c **** 		0x38, 0x54, 0x54, 0x54, 0x18, //69/ --> e
 286:Core/Src/GMG12864_lib.c **** 		0x10, 0x7E, 0x11, 0x01, 0x02, //70/ --> f
 287:Core/Src/GMG12864_lib.c **** 		0x0C, 0x52, 0x52, 0x52, 0x3E, //71/ --> g
 288:Core/Src/GMG12864_lib.c **** 		0x7F, 0x08, 0x04, 0x04, 0x78, //72/ --> h
 289:Core/Src/GMG12864_lib.c **** 		0x00, 0x44, 0x7D, 0x40, 0x00, //73/ --> i
 290:Core/Src/GMG12864_lib.c **** 		0x20, 0x40, 0x40, 0x3D, 0x00, //74/ --> j
 291:Core/Src/GMG12864_lib.c **** 		0x7F, 0x10, 0x28, 0x44, 0x00, //75/ --> k
 292:Core/Src/GMG12864_lib.c **** 		0x00, 0x41, 0x7F, 0x40, 0x00, //76/ --> l
 293:Core/Src/GMG12864_lib.c **** 		0x7C, 0x04, 0x18, 0x04, 0x78, //77/ --> m
 294:Core/Src/GMG12864_lib.c **** 		0x7C, 0x08, 0x04, 0x04, 0x78, //78/ --> n
 295:Core/Src/GMG12864_lib.c **** 		0x38, 0x44, 0x44, 0x44, 0x38, //79/ --> o
 296:Core/Src/GMG12864_lib.c **** 		0x7C, 0x14, 0x14, 0x14, 0x08, //80/ --> p
 297:Core/Src/GMG12864_lib.c **** 		0x08, 0x14, 0x14, 0x18, 0x7C, //81/ --> q
 298:Core/Src/GMG12864_lib.c **** 		0x7C, 0x08, 0x04, 0x04, 0x08, //82/ --> r
 299:Core/Src/GMG12864_lib.c **** 		0x48, 0x54, 0x54, 0x54, 0x20, //83/ --> s
 300:Core/Src/GMG12864_lib.c **** 		0x04, 0x3F, 0x44, 0x40, 0x20, //84/ --> t
 301:Core/Src/GMG12864_lib.c **** 		0x3C, 0x40, 0x40, 0x20, 0x7C, //85/ --> u
 302:Core/Src/GMG12864_lib.c **** 		0x1C, 0x20, 0x40, 0x20, 0x1C, //86/ --> v
 303:Core/Src/GMG12864_lib.c **** 		0x1E, 0x20, 0x10, 0x20, 0x1E, //87/ --> w
 304:Core/Src/GMG12864_lib.c **** 		0x22, 0x14, 0x08, 0x14, 0x22, //88/ --> x
 305:Core/Src/GMG12864_lib.c **** 		0x06, 0x48, 0x48, 0x48, 0x3E, //89/ --> y
 306:Core/Src/GMG12864_lib.c **** 		0x44, 0x64, 0x54, 0x4C, 0x44, //90/ --> z
 307:Core/Src/GMG12864_lib.c **** 		0x08, 0x36, 0x41, 0x00, 0x00, //91/ --> {
 308:Core/Src/GMG12864_lib.c **** 		0x00, 0x00, 0x7F, 0x00, 0x00, //92/ --> |
ARM GAS  C:\Users\SOLDER~1\AppData\Local\Temp\ccg2RcbO.s 			page 16


 309:Core/Src/GMG12864_lib.c **** 		0x41, 0x36, 0x08, 0x00, 0x00, //93/ --> }
 310:Core/Src/GMG12864_lib.c **** 		0x08, 0x08, 0x2A, 0x1C, 0x08, //94/ --> ~
 311:Core/Src/GMG12864_lib.c **** 		0x7E, 0x11, 0x11, 0x11, 0x7E, //95/ --> –ê
 312:Core/Src/GMG12864_lib.c **** 		0x7F, 0x49, 0x49, 0x49, 0x33, //96/ --> –ë
 313:Core/Src/GMG12864_lib.c **** 		0x7F, 0x49, 0x49, 0x49, 0x36, //97/ --> –í
 314:Core/Src/GMG12864_lib.c **** 		0x7F, 0x01, 0x01, 0x01, 0x03, //98/ --> –ì
 315:Core/Src/GMG12864_lib.c **** 		0xE0, 0x51, 0x4F, 0x41, 0xFF, //99/ --> –î
 316:Core/Src/GMG12864_lib.c **** 		0x7F, 0x49, 0x49, 0x49, 0x41, //100/ --> –ï
 317:Core/Src/GMG12864_lib.c **** 		0x77, 0x08, 0x7F, 0x08, 0x77, //101/ --> –ñ
 318:Core/Src/GMG12864_lib.c **** 		0x41, 0x49, 0x49, 0x49, 0x36, //102/ --> –ó
 319:Core/Src/GMG12864_lib.c **** 		0x7F, 0x10, 0x08, 0x04, 0x7F, //103/ --> –ò
 320:Core/Src/GMG12864_lib.c **** 		0x7C, 0x21, 0x12, 0x09, 0x7C, //104/ --> –ô
 321:Core/Src/GMG12864_lib.c **** 		0x7F, 0x08, 0x14, 0x22, 0x41, //105/ --> –ö
 322:Core/Src/GMG12864_lib.c **** 		0x20, 0x41, 0x3F, 0x01, 0x7F, //106/ --> –õ
 323:Core/Src/GMG12864_lib.c **** 		0x7F, 0x02, 0x0C, 0x02, 0x7F, //107/ --> –ú
 324:Core/Src/GMG12864_lib.c **** 		0x7F, 0x08, 0x08, 0x08, 0x7F, //108/ --> –ù
 325:Core/Src/GMG12864_lib.c **** 		0x3E, 0x41, 0x41, 0x41, 0x3E, //109/ --> –û
 326:Core/Src/GMG12864_lib.c **** 		0x7F, 0x01, 0x01, 0x01, 0x7F, //110/ --> –ü
 327:Core/Src/GMG12864_lib.c **** 		0x7F, 0x09, 0x09, 0x09, 0x06, //111/ --> –†
 328:Core/Src/GMG12864_lib.c **** 		0x3E, 0x41, 0x41, 0x41, 0x22, //112/ --> –°
 329:Core/Src/GMG12864_lib.c **** 		0x01, 0x01, 0x7F, 0x01, 0x01, //113/ --> –¢
 330:Core/Src/GMG12864_lib.c **** 		0x47, 0x28, 0x10, 0x08, 0x07, //114/ --> –£
 331:Core/Src/GMG12864_lib.c **** 		0x1C, 0x22, 0x7F, 0x22, 0x1C, //115/ --> –§
 332:Core/Src/GMG12864_lib.c **** 		0x63, 0x14, 0x08, 0x14, 0x63, //116/ --> –•
 333:Core/Src/GMG12864_lib.c **** 		0x7F, 0x40, 0x40, 0x40, 0xFF, //117/ --> –¶
 334:Core/Src/GMG12864_lib.c **** 		0x07, 0x08, 0x08, 0x08, 0x7F, //118/ --> –ß
 335:Core/Src/GMG12864_lib.c **** 		0x7F, 0x40, 0x7F, 0x40, 0x7F, //119/ --> –®
 336:Core/Src/GMG12864_lib.c **** 		0x7F, 0x40, 0x7F, 0x40, 0xFF, //120/ --> –©
 337:Core/Src/GMG12864_lib.c **** 		0x01, 0x7F, 0x48, 0x48, 0x30, //121/ --> –™
 338:Core/Src/GMG12864_lib.c **** 		0x7F, 0x48, 0x30, 0x00, 0x7F, //122/ --> –´
 339:Core/Src/GMG12864_lib.c **** 		0x00, 0x7F, 0x48, 0x48, 0x30, //123/ --> –≠
 340:Core/Src/GMG12864_lib.c **** 		0x22, 0x41, 0x49, 0x49, 0x3E, //124/ --> –¨
 341:Core/Src/GMG12864_lib.c **** 		0x7F, 0x08, 0x3E, 0x41, 0x3E, //125/ --> –Æ
 342:Core/Src/GMG12864_lib.c **** 		0x46, 0x29, 0x19, 0x09, 0x7f, //126/ --> –Ø
 343:Core/Src/GMG12864_lib.c **** 		0x20, 0x54, 0x54, 0x54, 0x78, //127/ --> a
 344:Core/Src/GMG12864_lib.c **** 		0x3c, 0x4a, 0x4a, 0x49, 0x31, //128/ --> –±
 345:Core/Src/GMG12864_lib.c **** 		0x7c, 0x54, 0x54, 0x28, 0x00, //129/ --> –≤
 346:Core/Src/GMG12864_lib.c **** 		0x7c, 0x04, 0x04, 0x04, 0x0c, //130/ --> –≥
 347:Core/Src/GMG12864_lib.c **** 		0xe0, 0x54, 0x4c, 0x44, 0xfc, //131/ --> –¥
 348:Core/Src/GMG12864_lib.c **** 		0x38, 0x54, 0x54, 0x54, 0x18, //132/ --> –µ
 349:Core/Src/GMG12864_lib.c **** 		0x6c, 0x10, 0x7c, 0x10, 0x6c, //133/ --> –∂
 350:Core/Src/GMG12864_lib.c **** 		0x44, 0x44, 0x54, 0x54, 0x28, //134/ --> –∑
 351:Core/Src/GMG12864_lib.c **** 		0x7c, 0x20, 0x10, 0x08, 0x7c, //135/ --> –∏
 352:Core/Src/GMG12864_lib.c **** 		0x7c, 0x41, 0x22, 0x11, 0x7c, //136/ --> –π
 353:Core/Src/GMG12864_lib.c **** 		0x7c, 0x10, 0x28, 0x44, 0x00, //137/ --> –∫
 354:Core/Src/GMG12864_lib.c **** 		0x20, 0x44, 0x3c, 0x04, 0x7c, //138/ --> –ª
 355:Core/Src/GMG12864_lib.c **** 		0x7c, 0x08, 0x10, 0x08, 0x7c, //139/ --> –º
 356:Core/Src/GMG12864_lib.c **** 		0x7c, 0x10, 0x10, 0x10, 0x7c, //140/ --> –Ω
 357:Core/Src/GMG12864_lib.c **** 		0x38, 0x44, 0x44, 0x44, 0x38, //141/ --> –æ
 358:Core/Src/GMG12864_lib.c **** 		0x7c, 0x04, 0x04, 0x04, 0x7c, //142/ --> –ø
 359:Core/Src/GMG12864_lib.c **** 		0x7C, 0x14, 0x14, 0x14, 0x08, //143/ --> —Ä
 360:Core/Src/GMG12864_lib.c **** 		0x38, 0x44, 0x44, 0x44, 0x28, //144/ --> —Å
 361:Core/Src/GMG12864_lib.c **** 		0x04, 0x04, 0x7c, 0x04, 0x04, //145/ --> —Ç
 362:Core/Src/GMG12864_lib.c **** 		0x0C, 0x50, 0x50, 0x50, 0x3C, //146/ --> —É
 363:Core/Src/GMG12864_lib.c **** 		0x30, 0x48, 0xfc, 0x48, 0x30, //147/ --> —Ñ
 364:Core/Src/GMG12864_lib.c **** 		0x44, 0x28, 0x10, 0x28, 0x44, //148/ --> —Ö
 365:Core/Src/GMG12864_lib.c **** 		0x7c, 0x40, 0x40, 0x40, 0xfc, //149/ --> —Ü
ARM GAS  C:\Users\SOLDER~1\AppData\Local\Temp\ccg2RcbO.s 			page 17


 366:Core/Src/GMG12864_lib.c **** 		0x0c, 0x10, 0x10, 0x10, 0x7c, //150/ --> —á
 367:Core/Src/GMG12864_lib.c **** 		0x7c, 0x40, 0x7c, 0x40, 0x7c, //151/ --> —à
 368:Core/Src/GMG12864_lib.c **** 		0x7c, 0x40, 0x7c, 0x40, 0xfc, //152/ --> —â
 369:Core/Src/GMG12864_lib.c **** 		0x04, 0x7c, 0x50, 0x50, 0x20, //153/ --> —ä
 370:Core/Src/GMG12864_lib.c **** 		0x7c, 0x50, 0x50, 0x20, 0x7c, //154/ --> —ã
 371:Core/Src/GMG12864_lib.c **** 		0x7c, 0x50, 0x50, 0x20, 0x00, //155/ --> —ç
 372:Core/Src/GMG12864_lib.c **** 		0x28, 0x44, 0x54, 0x54, 0x38, //156/ --> —å
 373:Core/Src/GMG12864_lib.c **** 		0x7c, 0x10, 0x38, 0x44, 0x38, //157/ --> —é
 374:Core/Src/GMG12864_lib.c **** 		0x08, 0x54, 0x34, 0x14, 0x7c, //158/ --> —è
 375:Core/Src/GMG12864_lib.c **** 		0x7E, 0x4B, 0x4A, 0x4B, 0x42, //159/ --> –Å
 376:Core/Src/GMG12864_lib.c **** 		0x38, 0x55, 0x54, 0x55, 0x18, //160/ --> —ë
 377:Core/Src/GMG12864_lib.c **** 		0x00, 0x06, 0x09, 0x09, 0x06, //161/ --> ¬∞
 378:Core/Src/GMG12864_lib.c **** 		};
 379:Core/Src/GMG12864_lib.c **** 
 380:Core/Src/GMG12864_lib.c **** /*-----------------------------------–®—Ä–∏—Ñ—Ç 5*7----------------------------------*/
 381:Core/Src/GMG12864_lib.c **** 
 382:Core/Src/GMG12864_lib.c **** /*================= –î–µ–º–æ–Ω—Å—Ç—Ä–∞—Ü–∏–æ–Ω–Ω–æ–µ –ª–æ–≥–æ. –ú–æ–∂–Ω–æ –≤—ã—Ä–µ–∑–∞—Ç—å. =======
 383:Core/Src/GMG12864_lib.c **** /*-----------------------------–î–µ–º–æ–Ω—Å—Ç—Ä–∞—Ü–∏–æ–Ω–Ω–æ–µ Logo----------------------------*/
 384:Core/Src/GMG12864_lib.c **** const char solderingiron[] = { 0xC0, 0xE0, 0x30, 0x30, 0x30, 0x30, 0x60, 0x20, 0x00, 0x00, 0x00, 0x
 385:Core/Src/GMG12864_lib.c **** 		0xF8, 0xF8, 0x00, 0x00, 0x00, 0x00, 0x00, 0x00, 0x00, 0xF8, 0xF8, 0x00, 0x00, 0x00, 0x00, 0x00, 0
 386:Core/Src/GMG12864_lib.c **** 		0x00, 0x00, 0x00, 0x00, 0x30, 0x30, 0x00, 0x00, 0x00, 0x00, 0x00, 0x00, 0x00, 0x00, 0x00, 0x00, 0
 387:Core/Src/GMG12864_lib.c **** 		0x00, 0x00, 0x00, 0x00, 0x00, 0x00, 0x00, 0x00, 0x00, 0x00, 0x00, 0x00, 0x30, 0x30, 0x00, 0x00, 0
 388:Core/Src/GMG12864_lib.c **** 		0x00, 0x00, 0x00, 0x00, 0x00, 0x00, 0x00, 0x00, 0x00, 0x00, 0x00, 0x00, 0x00, 0x00, 0x00, 0x00, 0
 389:Core/Src/GMG12864_lib.c **** 		0x00, 0x00, 0x00, 0x00, 0x00, 0x00, 0x00, 0xC1, 0x83, 0x06, 0x04, 0x0C, 0x0C, 0x8C, 0xF8, 0x70, 0
 390:Core/Src/GMG12864_lib.c **** 		0xFC, 0x78, 0x00, 0xFF, 0xFF, 0x78, 0xFE, 0x86, 0x03, 0x03, 0x03, 0x86, 0xFF, 0xFF, 0x00, 0x00, 0
 391:Core/Src/GMG12864_lib.c **** 		0x00, 0x00, 0xFF, 0xFF, 0x06, 0x03, 0x03, 0xFF, 0xFF, 0x00, 0xFF, 0xFF, 0x06, 0x03, 0x03, 0x03, 0
 392:Core/Src/GMG12864_lib.c **** 		0x03, 0x03, 0x86, 0xFF, 0xFF, 0x00, 0x00, 0x00, 0x00, 0x00, 0x00, 0x00, 0x00, 0x00, 0x00, 0xFF, 0
 393:Core/Src/GMG12864_lib.c **** 		0xFC, 0x86, 0x03, 0x03, 0x03, 0x03, 0x86, 0xFC, 0x78, 0x00, 0x00, 0xFF, 0xFF, 0x06, 0x03, 0x03, 0
 394:Core/Src/GMG12864_lib.c **** 		0x00, 0x00, 0x00, 0x00, 0x00, 0x00, 0x00, 0x00, 0x00, 0x00, 0x08, 0x09, 0x09, 0x0B, 0x0B, 0x0B, 0
 395:Core/Src/GMG12864_lib.c **** 		0x0B, 0x0B, 0x09, 0x08, 0x08, 0x08, 0x0B, 0x0B, 0x08, 0x09, 0x09, 0x0B, 0x0B, 0x0B, 0x09, 0x0B, 0
 396:Core/Src/GMG12864_lib.c **** 		0x0B, 0x09, 0x09, 0x08, 0x08, 0x0B, 0x0B, 0x08, 0x08, 0x08, 0x0B, 0x0B, 0x08, 0x0B, 0x0B, 0x08, 0
 397:Core/Src/GMG12864_lib.c **** 		0x10, 0x39, 0x63, 0x63, 0x63, 0x31, 0x1F, 0x0F, 0x00, 0x00, 0x08, 0x08, 0x08, 0x08, 0x08, 0x08, 0
 398:Core/Src/GMG12864_lib.c **** 		0x08, 0x08, 0x08, 0x08, 0x09, 0x0B, 0x0B, 0x0B, 0x0B, 0x09, 0x08, 0x08, 0x08, 0x08, 0x0B, 0x0B, 0
 399:Core/Src/GMG12864_lib.c **** /*-----------------------------–î–µ–º–æ–Ω—Å—Ç—Ä–∞—Ü–∏–æ–Ω–Ω–æ–µ Logo----------------------------*/
 400:Core/Src/GMG12864_lib.c **** 
 401:Core/Src/GMG12864_lib.c **** /*---------------–í—ã–≤–æ–¥ —Å—Ç–∞—Ä—Ç–æ–≤–æ–≥–æ –¥–µ–º–æ–Ω—Å—Ç—Ä–∞—Ü–∏–æ–Ω–Ω–æ–≥–æ –ª–æ–≥–æ-------
 402:Core/Src/GMG12864_lib.c **** #if defined (USE_CMSIS)
 403:Core/Src/GMG12864_lib.c **** void GMG12864_logo_demonstration(void) {
 209              		.loc 1 403 40
 210              		.cfi_startproc
 211              		@ args = 0, pretend = 0, frame = 8
 212              		@ frame_needed = 1, uses_anonymous_args = 0
 213 0000 80B5     		push	{r7, lr}
 214              		.cfi_def_cfa_offset 8
 215              		.cfi_offset 7, -8
 216              		.cfi_offset 14, -4
 217 0002 84B0     		sub	sp, sp, #16
 218              		.cfi_def_cfa_offset 24
 219 0004 02AF     		add	r7, sp, #8
 220              		.cfi_def_cfa 7, 16
 404:Core/Src/GMG12864_lib.c ****     GMG12864_Clean_Frame_buffer();
 221              		.loc 1 404 5
 222 0006 FFF7FEFF 		bl	GMG12864_Clean_Frame_buffer
 223              	.LBB2:
 405:Core/Src/GMG12864_lib.c ****     for (int i = 0; i < 369; i++) {
 224              		.loc 1 405 14
 225 000a 0023     		movs	r3, #0
ARM GAS  C:\Users\SOLDER~1\AppData\Local\Temp\ccg2RcbO.s 			page 18


 226 000c 7B60     		str	r3, [r7, #4]
 227              		.loc 1 405 5
 228 000e 0BE0     		b	.L2
 229              	.L3:
 406:Core/Src/GMG12864_lib.c ****         Frame_buffer[i + 265] = solderingiron[i];
 230              		.loc 1 406 24 discriminator 3
 231 0010 7B68     		ldr	r3, [r7, #4]
 232 0012 03F20913 		addw	r3, r3, #265
 233              		.loc 1 406 46 discriminator 3
 234 0016 3949     		ldr	r1, .L6
 235 0018 7A68     		ldr	r2, [r7, #4]
 236 001a 0A44     		add	r2, r2, r1
 237 001c 1178     		ldrb	r1, [r2]	@ zero_extendqisi2
 238              		.loc 1 406 31 discriminator 3
 239 001e 384A     		ldr	r2, .L6+4
 240 0020 D154     		strb	r1, [r2, r3]
 405:Core/Src/GMG12864_lib.c ****     for (int i = 0; i < 369; i++) {
 241              		.loc 1 405 31 discriminator 3
 242 0022 7B68     		ldr	r3, [r7, #4]
 243 0024 0133     		adds	r3, r3, #1
 244 0026 7B60     		str	r3, [r7, #4]
 245              	.L2:
 405:Core/Src/GMG12864_lib.c ****     for (int i = 0; i < 369; i++) {
 246              		.loc 1 405 5 discriminator 1
 247 0028 7B68     		ldr	r3, [r7, #4]
 248 002a B3F5B87F 		cmp	r3, #368
 249 002e EFDD     		ble	.L3
 250              	.LBE2:
 407:Core/Src/GMG12864_lib.c ****     }
 408:Core/Src/GMG12864_lib.c ****     GMG12864_Update();
 251              		.loc 1 408 5
 252 0030 FFF7FEFF 		bl	GMG12864_Update
 409:Core/Src/GMG12864_lib.c ****     sprintf(tx_buffer, "Saint Petersburg");
 253              		.loc 1 409 5
 254 0034 3349     		ldr	r1, .L6+8
 255 0036 3448     		ldr	r0, .L6+12
 256 0038 FFF7FEFF 		bl	sprintf
 410:Core/Src/GMG12864_lib.c ****     GMG12864_Decode_UTF8(16, 40, 1, 0, tx_buffer);
 257              		.loc 1 410 5
 258 003c 324B     		ldr	r3, .L6+12
 259 003e 0093     		str	r3, [sp]
 260 0040 0023     		movs	r3, #0
 261 0042 0122     		movs	r2, #1
 262 0044 2821     		movs	r1, #40
 263 0046 1020     		movs	r0, #16
 264 0048 FFF7FEFF 		bl	GMG12864_Decode_UTF8
 411:Core/Src/GMG12864_lib.c ****     sprintf(tx_buffer, "electronics lab.");
 265              		.loc 1 411 5
 266 004c 2F49     		ldr	r1, .L6+16
 267 004e 2E48     		ldr	r0, .L6+12
 268 0050 FFF7FEFF 		bl	sprintf
 412:Core/Src/GMG12864_lib.c ****     GMG12864_Decode_UTF8(18, 48, 1, 0, tx_buffer);
 269              		.loc 1 412 5
 270 0054 2C4B     		ldr	r3, .L6+12
 271 0056 0093     		str	r3, [sp]
 272 0058 0023     		movs	r3, #0
 273 005a 0122     		movs	r2, #1
ARM GAS  C:\Users\SOLDER~1\AppData\Local\Temp\ccg2RcbO.s 			page 19


 274 005c 3021     		movs	r1, #48
 275 005e 1220     		movs	r0, #18
 276 0060 FFF7FEFF 		bl	GMG12864_Decode_UTF8
 413:Core/Src/GMG12864_lib.c ****     Delay_ms(500);
 277              		.loc 1 413 5
 278 0064 4FF4FA70 		mov	r0, #500
 279 0068 FFF7FEFF 		bl	Delay_ms
 414:Core/Src/GMG12864_lib.c ****     GMG12864_Update();
 280              		.loc 1 414 5
 281 006c FFF7FEFF 		bl	GMG12864_Update
 415:Core/Src/GMG12864_lib.c ****     Delay_ms(3000);
 282              		.loc 1 415 5
 283 0070 40F6B830 		movw	r0, #3000
 284 0074 FFF7FEFF 		bl	Delay_ms
 416:Core/Src/GMG12864_lib.c ****     sprintf(tx_buffer, "                ");
 285              		.loc 1 416 5
 286 0078 2549     		ldr	r1, .L6+20
 287 007a 2348     		ldr	r0, .L6+12
 288 007c FFF7FEFF 		bl	sprintf
 417:Core/Src/GMG12864_lib.c ****     GMG12864_Decode_UTF8(18, 48, 1, 0, tx_buffer);
 289              		.loc 1 417 5
 290 0080 214B     		ldr	r3, .L6+12
 291 0082 0093     		str	r3, [sp]
 292 0084 0023     		movs	r3, #0
 293 0086 0122     		movs	r2, #1
 294 0088 3021     		movs	r1, #48
 295 008a 1220     		movs	r0, #18
 296 008c FFF7FEFF 		bl	GMG12864_Decode_UTF8
 418:Core/Src/GMG12864_lib.c ****     Delay_ms(500);
 297              		.loc 1 418 5
 298 0090 4FF4FA70 		mov	r0, #500
 299 0094 FFF7FEFF 		bl	Delay_ms
 419:Core/Src/GMG12864_lib.c ****     GMG12864_Update();
 300              		.loc 1 419 5
 301 0098 FFF7FEFF 		bl	GMG12864_Update
 420:Core/Src/GMG12864_lib.c ****     sprintf(tx_buffer, "                ");
 302              		.loc 1 420 5
 303 009c 1C49     		ldr	r1, .L6+20
 304 009e 1A48     		ldr	r0, .L6+12
 305 00a0 FFF7FEFF 		bl	sprintf
 421:Core/Src/GMG12864_lib.c ****     GMG12864_Decode_UTF8(16, 40, 1, 0, tx_buffer);
 306              		.loc 1 421 5
 307 00a4 184B     		ldr	r3, .L6+12
 308 00a6 0093     		str	r3, [sp]
 309 00a8 0023     		movs	r3, #0
 310 00aa 0122     		movs	r2, #1
 311 00ac 2821     		movs	r1, #40
 312 00ae 1020     		movs	r0, #16
 313 00b0 FFF7FEFF 		bl	GMG12864_Decode_UTF8
 422:Core/Src/GMG12864_lib.c ****     Delay_ms(500);
 314              		.loc 1 422 5
 315 00b4 4FF4FA70 		mov	r0, #500
 316 00b8 FFF7FEFF 		bl	Delay_ms
 423:Core/Src/GMG12864_lib.c ****     GMG12864_Update();
 317              		.loc 1 423 5
 318 00bc FFF7FEFF 		bl	GMG12864_Update
 319              	.LBB3:
ARM GAS  C:\Users\SOLDER~1\AppData\Local\Temp\ccg2RcbO.s 			page 20


 424:Core/Src/GMG12864_lib.c **** 
 425:Core/Src/GMG12864_lib.c ****     for (int i = 0; i < 369; i++) {
 320              		.loc 1 425 14
 321 00c0 0023     		movs	r3, #0
 322 00c2 3B60     		str	r3, [r7]
 323              		.loc 1 425 5
 324 00c4 08E0     		b	.L4
 325              	.L5:
 426:Core/Src/GMG12864_lib.c ****         Frame_buffer[i + 265] = 0x00;
 326              		.loc 1 426 24 discriminator 3
 327 00c6 3B68     		ldr	r3, [r7]
 328 00c8 03F20913 		addw	r3, r3, #265
 329              		.loc 1 426 31 discriminator 3
 330 00cc 0C4A     		ldr	r2, .L6+4
 331 00ce 0021     		movs	r1, #0
 332 00d0 D154     		strb	r1, [r2, r3]
 425:Core/Src/GMG12864_lib.c ****         Frame_buffer[i + 265] = 0x00;
 333              		.loc 1 425 31 discriminator 3
 334 00d2 3B68     		ldr	r3, [r7]
 335 00d4 0133     		adds	r3, r3, #1
 336 00d6 3B60     		str	r3, [r7]
 337              	.L4:
 425:Core/Src/GMG12864_lib.c ****         Frame_buffer[i + 265] = 0x00;
 338              		.loc 1 425 5 discriminator 1
 339 00d8 3B68     		ldr	r3, [r7]
 340 00da B3F5B87F 		cmp	r3, #368
 341 00de F2DD     		ble	.L5
 342              	.LBE3:
 427:Core/Src/GMG12864_lib.c ****     }
 428:Core/Src/GMG12864_lib.c ****     GMG12864_Update();
 343              		.loc 1 428 5
 344 00e0 FFF7FEFF 		bl	GMG12864_Update
 429:Core/Src/GMG12864_lib.c ****     Delay_ms(500);
 345              		.loc 1 429 5
 346 00e4 4FF4FA70 		mov	r0, #500
 347 00e8 FFF7FEFF 		bl	Delay_ms
 430:Core/Src/GMG12864_lib.c ****     GMG12864_Clean_Frame_buffer();
 348              		.loc 1 430 5
 349 00ec FFF7FEFF 		bl	GMG12864_Clean_Frame_buffer
 431:Core/Src/GMG12864_lib.c ****     GMG12864_Update();
 350              		.loc 1 431 5
 351 00f0 FFF7FEFF 		bl	GMG12864_Update
 432:Core/Src/GMG12864_lib.c **** }
 352              		.loc 1 432 1
 353 00f4 00BF     		nop
 354 00f6 0837     		adds	r7, r7, #8
 355              		.cfi_def_cfa_offset 8
 356 00f8 BD46     		mov	sp, r7
 357              		.cfi_def_cfa_register 13
 358              		@ sp needed
 359 00fa 80BD     		pop	{r7, pc}
 360              	.L7:
 361              		.align	2
 362              	.L6:
 363 00fc 00000000 		.word	solderingiron
 364 0100 00000000 		.word	Frame_buffer
 365 0104 00000000 		.word	.LC0
ARM GAS  C:\Users\SOLDER~1\AppData\Local\Temp\ccg2RcbO.s 			page 21


 366 0108 00000000 		.word	tx_buffer
 367 010c 14000000 		.word	.LC1
 368 0110 28000000 		.word	.LC2
 369              		.cfi_endproc
 370              	.LFE68:
 372              		.section	.text.GMG12864_Send_command,"ax",%progbits
 373              		.align	1
 374              		.syntax unified
 375              		.thumb
 376              		.thumb_func
 378              	GMG12864_Send_command:
 379              	.LFB69:
 433:Core/Src/GMG12864_lib.c **** #elif defined (USE_HAL)
 434:Core/Src/GMG12864_lib.c **** void GMG12864_logo_demonstration(void) {
 435:Core/Src/GMG12864_lib.c **** 	GMG12864_Clean_Frame_buffer();
 436:Core/Src/GMG12864_lib.c **** 	for (int i = 0; i < 369; i++) {
 437:Core/Src/GMG12864_lib.c **** 		Frame_buffer[i + 265] = solderingiron[i];
 438:Core/Src/GMG12864_lib.c **** 	}
 439:Core/Src/GMG12864_lib.c **** 	GMG12864_Update();
 440:Core/Src/GMG12864_lib.c **** 	sprintf(tx_buffer, "Saint Petersburg");
 441:Core/Src/GMG12864_lib.c **** 	GMG12864_Decode_UTF8(16, 40, 1, 0, tx_buffer);
 442:Core/Src/GMG12864_lib.c **** 	sprintf(tx_buffer, "electronics lab.");
 443:Core/Src/GMG12864_lib.c **** 	GMG12864_Decode_UTF8(18, 48, 1, 0, tx_buffer);
 444:Core/Src/GMG12864_lib.c **** 	HAL_Delay(500);
 445:Core/Src/GMG12864_lib.c **** 	GMG12864_Update();
 446:Core/Src/GMG12864_lib.c **** 	HAL_Delay(3000);
 447:Core/Src/GMG12864_lib.c **** 	sprintf(tx_buffer, "                ");
 448:Core/Src/GMG12864_lib.c **** 	GMG12864_Decode_UTF8(18, 48, 1, 0, tx_buffer);
 449:Core/Src/GMG12864_lib.c **** 	HAL_Delay(500);
 450:Core/Src/GMG12864_lib.c **** 	GMG12864_Update();
 451:Core/Src/GMG12864_lib.c **** 	sprintf(tx_buffer, "                ");
 452:Core/Src/GMG12864_lib.c **** 	GMG12864_Decode_UTF8(16, 40, 1, 0, tx_buffer);
 453:Core/Src/GMG12864_lib.c **** 	HAL_Delay(500);
 454:Core/Src/GMG12864_lib.c **** 	GMG12864_Update();
 455:Core/Src/GMG12864_lib.c **** 
 456:Core/Src/GMG12864_lib.c **** 	for (int i = 0; i < 369; i++) {
 457:Core/Src/GMG12864_lib.c **** 		Frame_buffer[i + 265] = 0x00;
 458:Core/Src/GMG12864_lib.c **** 	}
 459:Core/Src/GMG12864_lib.c **** 	GMG12864_Update();
 460:Core/Src/GMG12864_lib.c **** 	HAL_Delay(500);
 461:Core/Src/GMG12864_lib.c **** 	GMG12864_Clean_Frame_buffer();
 462:Core/Src/GMG12864_lib.c **** 	GMG12864_Update();
 463:Core/Src/GMG12864_lib.c **** }
 464:Core/Src/GMG12864_lib.c **** #endif
 465:Core/Src/GMG12864_lib.c **** /*---------------–í—ã–≤–æ–¥ —Å—Ç–∞—Ä—Ç–æ–≤–æ–≥–æ –¥–µ–º–æ–Ω—Å—Ç—Ä–∞—Ü–∏–æ–Ω–Ω–æ–≥–æ –ª–æ–≥–æ-------
 466:Core/Src/GMG12864_lib.c **** /*================= –î–µ–º–æ–Ω—Å—Ç—Ä–∞—Ü–∏–æ–Ω–Ω–æ–µ –ª–æ–≥–æ. –ú–æ–∂–Ω–æ –≤—ã—Ä–µ–∑–∞—Ç—å. =======
 467:Core/Src/GMG12864_lib.c **** 
 468:Core/Src/GMG12864_lib.c **** /*----------------------–§—É–Ω–∫—Ü–∏—è –æ—Ç–ø—Ä–∞–≤–∫–∏ –∫–æ–º–∞–Ω–¥—ã –Ω–∞ –¥–∏—Å–ø–ª–µ–π---------
 469:Core/Src/GMG12864_lib.c **** static void GMG12864_Send_command(uint8_t Command) {
 380              		.loc 1 469 52
 381              		.cfi_startproc
 382              		@ args = 0, pretend = 0, frame = 8
 383              		@ frame_needed = 1, uses_anonymous_args = 0
 384 0000 80B5     		push	{r7, lr}
 385              		.cfi_def_cfa_offset 8
 386              		.cfi_offset 7, -8
 387              		.cfi_offset 14, -4
ARM GAS  C:\Users\SOLDER~1\AppData\Local\Temp\ccg2RcbO.s 			page 22


 388 0002 82B0     		sub	sp, sp, #8
 389              		.cfi_def_cfa_offset 16
 390 0004 00AF     		add	r7, sp, #0
 391              		.cfi_def_cfa_register 7
 392 0006 0346     		mov	r3, r0
 393 0008 FB71     		strb	r3, [r7, #7]
 470:Core/Src/GMG12864_lib.c **** /// –§—É–Ω–∫—Ü–∏—è –æ—Ç–ø—Ä–∞–≤–∫–∏ –∫–æ–º–∞–Ω–¥—ã –Ω–∞ –¥–∏—Å–ø–ª–µ–π
 471:Core/Src/GMG12864_lib.c **** /// \param Command - 8 –±–∏—Ç –¥–∞–Ω–Ω—ã—Ö.
 472:Core/Src/GMG12864_lib.c **** #if defined (USE_CMSIS)
 473:Core/Src/GMG12864_lib.c ****     DC_ON;
 394              		.loc 1 473 5
 395 000a 084B     		ldr	r3, .L9
 396 000c 4FF40032 		mov	r2, #131072
 397 0010 1A61     		str	r2, [r3, #16]
 474:Core/Src/GMG12864_lib.c ****     CMSIS_SPI_Data_Transmit_8BIT(SPI1, &Command, 1, 100);
 398              		.loc 1 474 5
 399 0012 F91D     		adds	r1, r7, #7
 400 0014 6423     		movs	r3, #100
 401 0016 0122     		movs	r2, #1
 402 0018 0548     		ldr	r0, .L9+4
 403 001a FFF7FEFF 		bl	CMSIS_SPI_Data_Transmit_8BIT
 475:Core/Src/GMG12864_lib.c ****     DC_OFF;
 404              		.loc 1 475 5
 405 001e 034B     		ldr	r3, .L9
 406 0020 0222     		movs	r2, #2
 407 0022 1A61     		str	r2, [r3, #16]
 476:Core/Src/GMG12864_lib.c **** #elif defined (USE_HAL)
 477:Core/Src/GMG12864_lib.c ****     DC_ON;
 478:Core/Src/GMG12864_lib.c **** 	HAL_SPI_Transmit(&hspi1, &Command, 1, HAL_MAX_DELAY);
 479:Core/Src/GMG12864_lib.c **** 	while (HAL_SPI_GetState(&hspi1) != HAL_SPI_STATE_READY);
 480:Core/Src/GMG12864_lib.c ****     DC_OFF;
 481:Core/Src/GMG12864_lib.c **** #endif
 482:Core/Src/GMG12864_lib.c **** }
 408              		.loc 1 482 1
 409 0024 00BF     		nop
 410 0026 0837     		adds	r7, r7, #8
 411              		.cfi_def_cfa_offset 8
 412 0028 BD46     		mov	sp, r7
 413              		.cfi_def_cfa_register 13
 414              		@ sp needed
 415 002a 80BD     		pop	{r7, pc}
 416              	.L10:
 417              		.align	2
 418              	.L9:
 419 002c 000C0140 		.word	1073810432
 420 0030 00300140 		.word	1073819648
 421              		.cfi_endproc
 422              	.LFE69:
 424              		.section	.text.GMG12864_Send_data,"ax",%progbits
 425              		.align	1
 426              		.syntax unified
 427              		.thumb
 428              		.thumb_func
 430              	GMG12864_Send_data:
 431              	.LFB70:
 483:Core/Src/GMG12864_lib.c **** /*----------------------–§—É–Ω–∫—Ü–∏—è –æ—Ç–ø—Ä–∞–≤–∫–∏ –∫–æ–º–∞–Ω–¥—ã –Ω–∞ –¥–∏—Å–ø–ª–µ–π---------
 484:Core/Src/GMG12864_lib.c **** 
ARM GAS  C:\Users\SOLDER~1\AppData\Local\Temp\ccg2RcbO.s 			page 23


 485:Core/Src/GMG12864_lib.c **** /*----------------------–§—É–Ω–∫—Ü–∏—è –æ—Ç–ø—Ä–∞–≤–∫–∏ –¥–∞–Ω–Ω—ã—Ö –Ω–∞ –¥–∏—Å–ø–ª–µ–π-----------
 486:Core/Src/GMG12864_lib.c **** /// –§—É–Ω–∫—Ü–∏—è –æ—Ç–ø—Ä–∞–≤–∫–∏ –¥–∞–Ω–Ω—ã—Ö –Ω–∞ –¥–∏—Å–ø–ª–µ–π
 487:Core/Src/GMG12864_lib.c **** /// \param Data - 8 –±–∏—Ç –¥–∞–Ω–Ω—ã—Ö.
 488:Core/Src/GMG12864_lib.c **** static void GMG12864_Send_data(uint8_t Dat) {
 432              		.loc 1 488 45
 433              		.cfi_startproc
 434              		@ args = 0, pretend = 0, frame = 8
 435              		@ frame_needed = 1, uses_anonymous_args = 0
 436 0000 80B5     		push	{r7, lr}
 437              		.cfi_def_cfa_offset 8
 438              		.cfi_offset 7, -8
 439              		.cfi_offset 14, -4
 440 0002 82B0     		sub	sp, sp, #8
 441              		.cfi_def_cfa_offset 16
 442 0004 00AF     		add	r7, sp, #0
 443              		.cfi_def_cfa_register 7
 444 0006 0346     		mov	r3, r0
 445 0008 FB71     		strb	r3, [r7, #7]
 489:Core/Src/GMG12864_lib.c **** #if defined (USE_CMSIS)
 490:Core/Src/GMG12864_lib.c ****     CMSIS_SPI_Data_Transmit_8BIT(SPI1, &Dat, 1, 100);
 446              		.loc 1 490 5
 447 000a F91D     		adds	r1, r7, #7
 448 000c 6423     		movs	r3, #100
 449 000e 0122     		movs	r2, #1
 450 0010 0348     		ldr	r0, .L12
 451 0012 FFF7FEFF 		bl	CMSIS_SPI_Data_Transmit_8BIT
 491:Core/Src/GMG12864_lib.c **** #elif defined (USE_HAL)
 492:Core/Src/GMG12864_lib.c ****     HAL_SPI_Transmit(&hspi1, &Dat, 1, HAL_MAX_DELAY);
 493:Core/Src/GMG12864_lib.c ****     while (HAL_SPI_GetState(&hspi1) != HAL_SPI_STATE_READY) ;
 494:Core/Src/GMG12864_lib.c **** #endif
 495:Core/Src/GMG12864_lib.c **** 	
 496:Core/Src/GMG12864_lib.c **** }
 452              		.loc 1 496 1
 453 0016 00BF     		nop
 454 0018 0837     		adds	r7, r7, #8
 455              		.cfi_def_cfa_offset 8
 456 001a BD46     		mov	sp, r7
 457              		.cfi_def_cfa_register 13
 458              		@ sp needed
 459 001c 80BD     		pop	{r7, pc}
 460              	.L13:
 461 001e 00BF     		.align	2
 462              	.L12:
 463 0020 00300140 		.word	1073819648
 464              		.cfi_endproc
 465              	.LFE70:
 467              		.section	.text.GMG12864_Clean_Frame_buffer,"ax",%progbits
 468              		.align	1
 469              		.global	GMG12864_Clean_Frame_buffer
 470              		.syntax unified
 471              		.thumb
 472              		.thumb_func
 474              	GMG12864_Clean_Frame_buffer:
 475              	.LFB71:
 497:Core/Src/GMG12864_lib.c **** /*----------------------–§—É–Ω–∫—Ü–∏—è –æ—Ç–ø—Ä–∞–≤–∫–∏ –¥–∞–Ω–Ω—ã—Ö –Ω–∞ –¥–∏—Å–ø–ª–µ–π-----------
 498:Core/Src/GMG12864_lib.c **** 
 499:Core/Src/GMG12864_lib.c **** /*------------------------–§—É–Ω–∫—Ü–∏—è –æ—á–∏—Å—Ç–∫–∏ –±—É—Ñ–µ—Ä–∞ –∫–∞–¥—Ä–∞--------------------
ARM GAS  C:\Users\SOLDER~1\AppData\Local\Temp\ccg2RcbO.s 			page 24


 500:Core/Src/GMG12864_lib.c **** void GMG12864_Clean_Frame_buffer(void) {
 476              		.loc 1 500 40
 477              		.cfi_startproc
 478              		@ args = 0, pretend = 0, frame = 0
 479              		@ frame_needed = 1, uses_anonymous_args = 0
 480 0000 80B5     		push	{r7, lr}
 481              		.cfi_def_cfa_offset 8
 482              		.cfi_offset 7, -8
 483              		.cfi_offset 14, -4
 484 0002 00AF     		add	r7, sp, #0
 485              		.cfi_def_cfa_register 7
 501:Core/Src/GMG12864_lib.c **** /// –§—É–Ω–∫—Ü–∏—è –æ—á–∏—Å—Ç–∫–∏ –±—É—Ñ–µ—Ä–∞ –∫–∞–¥—Ä–∞
 502:Core/Src/GMG12864_lib.c **** 	memset(Frame_buffer, 0x00, sizeof(Frame_buffer));
 486              		.loc 1 502 2
 487 0004 4FF48062 		mov	r2, #1024
 488 0008 0021     		movs	r1, #0
 489 000a 0248     		ldr	r0, .L15
 490 000c FFF7FEFF 		bl	memset
 503:Core/Src/GMG12864_lib.c **** }
 491              		.loc 1 503 1
 492 0010 00BF     		nop
 493 0012 80BD     		pop	{r7, pc}
 494              	.L16:
 495              		.align	2
 496              	.L15:
 497 0014 00000000 		.word	Frame_buffer
 498              		.cfi_endproc
 499              	.LFE71:
 501              		.section	.text.GMG12864_Init,"ax",%progbits
 502              		.align	1
 503              		.global	GMG12864_Init
 504              		.syntax unified
 505              		.thumb
 506              		.thumb_func
 508              	GMG12864_Init:
 509              	.LFB72:
 504:Core/Src/GMG12864_lib.c **** /*------------------------–§—É–Ω–∫—Ü–∏—è –æ—á–∏—Å—Ç–∫–∏ –±—É—Ñ–µ—Ä–∞ –∫–∞–¥—Ä–∞--------------------
 505:Core/Src/GMG12864_lib.c **** 
 506:Core/Src/GMG12864_lib.c **** /*-------------------------–§—É–Ω–∫—Ü–∏—è –∏–Ω–∏—Ü–∏–∞–ª–∏–∑–∞—Ü–∏–∏ –¥–∏—Å–ø–ª–µ—è----------------
 507:Core/Src/GMG12864_lib.c **** #if defined (USE_CMSIS)
 508:Core/Src/GMG12864_lib.c **** void GMG12864_Init(void) {
 510              		.loc 1 508 26
 511              		.cfi_startproc
 512              		@ args = 0, pretend = 0, frame = 0
 513              		@ frame_needed = 1, uses_anonymous_args = 0
 514 0000 80B5     		push	{r7, lr}
 515              		.cfi_def_cfa_offset 8
 516              		.cfi_offset 7, -8
 517              		.cfi_offset 14, -4
 518 0002 00AF     		add	r7, sp, #0
 519              		.cfi_def_cfa_register 7
 509:Core/Src/GMG12864_lib.c ****     /// –§—É–Ω–∫—Ü–∏—è –∏–Ω–∏—Ü–∏–∞–ª–∏–∑–∞—Ü–∏–∏ –¥–∏—Å–ø–ª–µ—è
 510:Core/Src/GMG12864_lib.c ****     NSS_ON;
 520              		.loc 1 510 5
 521 0004 244B     		ldr	r3, .L18
 522 0006 4FF48002 		mov	r2, #4194304
 523 000a 1A61     		str	r2, [r3, #16]
ARM GAS  C:\Users\SOLDER~1\AppData\Local\Temp\ccg2RcbO.s 			page 25


 511:Core/Src/GMG12864_lib.c ****     RST_ON;
 524              		.loc 1 511 5
 525 000c 234B     		ldr	r3, .L18+4
 526 000e 4FF48032 		mov	r2, #65536
 527 0012 1A61     		str	r2, [r3, #16]
 512:Core/Src/GMG12864_lib.c ****     Delay_ms(10);
 528              		.loc 1 512 5
 529 0014 0A20     		movs	r0, #10
 530 0016 FFF7FEFF 		bl	Delay_ms
 513:Core/Src/GMG12864_lib.c ****     RST_OFF;
 531              		.loc 1 513 5
 532 001a 204B     		ldr	r3, .L18+4
 533 001c 0122     		movs	r2, #1
 534 001e 1A61     		str	r2, [r3, #16]
 514:Core/Src/GMG12864_lib.c ****     Delay_ms(10);
 535              		.loc 1 514 5
 536 0020 0A20     		movs	r0, #10
 537 0022 FFF7FEFF 		bl	Delay_ms
 515:Core/Src/GMG12864_lib.c ****     // –£—Å—Ç–∞–Ω–æ–≤–∏—Ç–µ —Ä–∞–±–æ—á–∏–π —Ü–∏–∫–ª ( 1/7 –∏–ª–∏ 1/9 ) –≤ –∑–∞–≤–∏—Å–∏–º–æ—Å—Ç–∏ –æ
 516:Core/Src/GMG12864_lib.c ****     GMG12864_Send_command(0xA2);
 538              		.loc 1 516 5
 539 0026 A220     		movs	r0, #162
 540 0028 FFF7FEFF 		bl	GMG12864_Send_command
 517:Core/Src/GMG12864_lib.c ****     Delay_ms(1);
 541              		.loc 1 517 5
 542 002c 0120     		movs	r0, #1
 543 002e FFF7FEFF 		bl	Delay_ms
 518:Core/Src/GMG12864_lib.c ****     // –£—Å—Ç–∞–Ω–æ–≤–∏—Ç–µ –≥–æ—Ä–∏–∑–æ–Ω—Ç–∞–ª—å–Ω—É—é –∏ –≤–µ—Ä—Ç–∏–∫–∞–ª—å–Ω—É—é –æ—Ä–∏–µ–Ω—Ç–∞
 519:Core/Src/GMG12864_lib.c ****     GMG12864_Send_command(0xA0); //ADC selection(SEG0->SEG128)
 544              		.loc 1 519 5
 545 0032 A020     		movs	r0, #160
 546 0034 FFF7FEFF 		bl	GMG12864_Send_command
 520:Core/Src/GMG12864_lib.c ****     GMG12864_Send_command(0xC8); //SHL selection(COM0->COM64)
 547              		.loc 1 520 5
 548 0038 C820     		movs	r0, #200
 549 003a FFF7FEFF 		bl	GMG12864_Send_command
 521:Core/Src/GMG12864_lib.c ****     Delay_ms(1);
 550              		.loc 1 521 5
 551 003e 0120     		movs	r0, #1
 552 0040 FFF7FEFF 		bl	Delay_ms
 522:Core/Src/GMG12864_lib.c ****     // –¥–µ–ª–∏—Ç–µ–ª—å –≤–Ω—É—Ç—Ä–µ–Ω–Ω–µ–≥–æ —Ä–µ–∑–∏—Å—Ç–æ—Ä–∞ —É—Å—Ç–∞–Ω–æ–≤–ª–µ–Ω –Ω–∞ 7 (–æ—Ç
 523:Core/Src/GMG12864_lib.c ****     GMG12864_Send_command(0x20 | 0x7); //Regulator Resistor Selection
 553              		.loc 1 523 5
 554 0044 2720     		movs	r0, #39
 555 0046 FFF7FEFF 		bl	GMG12864_Send_command
 524:Core/Src/GMG12864_lib.c ****     Delay_ms(1);
 556              		.loc 1 524 5
 557 004a 0120     		movs	r0, #1
 558 004c FFF7FEFF 		bl	Delay_ms
 525:Core/Src/GMG12864_lib.c ****     // —É–ø—Ä–∞–≤–ª–µ–Ω–∏–µ –ø–∏—Ç–∞–Ω–∏–µ–º, –≤—Å–µ –≤–Ω—É—Ç—Ä–µ–Ω–Ω–∏–µ –±–ª–æ–∫–∏ –≤–∫–ª—é—á–µ–Ω
 526:Core/Src/GMG12864_lib.c ****     GMG12864_Send_command(0x28 | 0x7);
 559              		.loc 1 526 5
 560 0050 2F20     		movs	r0, #47
 561 0052 FFF7FEFF 		bl	GMG12864_Send_command
 527:Core/Src/GMG12864_lib.c ****     Delay_ms(1);
 562              		.loc 1 527 5
 563 0056 0120     		movs	r0, #1
ARM GAS  C:\Users\SOLDER~1\AppData\Local\Temp\ccg2RcbO.s 			page 26


 564 0058 FFF7FEFF 		bl	Delay_ms
 528:Core/Src/GMG12864_lib.c ****     // –≤–æ–π—Ç–∏ –≤ —Ä–µ–∂–∏–º –¥–∏–Ω–∞–º–∏—á–µ—Å–∫–æ–≥–æ –∫–æ–Ω—Ç—Ä–∞—Å—Ç–∞
 529:Core/Src/GMG12864_lib.c ****     GMG12864_Send_command(0x81); //Electronic Volume
 565              		.loc 1 529 5
 566 005c 8120     		movs	r0, #129
 567 005e FFF7FEFF 		bl	GMG12864_Send_command
 530:Core/Src/GMG12864_lib.c ****     GMG12864_Send_command(18); // –ù–∞—Å—Ç—Ä–æ–π–∫–∞ –∫–æ–Ω—Ç—Ä–∞—Å—Ç–∞. –û—Ç—Ä–µ–≥—É–ª–∏—Ä—É–π—Ç–µ
 568              		.loc 1 530 5
 569 0062 1220     		movs	r0, #18
 570 0064 FFF7FEFF 		bl	GMG12864_Send_command
 531:Core/Src/GMG12864_lib.c ****     Delay_ms(1);
 571              		.loc 1 531 5
 572 0068 0120     		movs	r0, #1
 573 006a FFF7FEFF 		bl	Delay_ms
 532:Core/Src/GMG12864_lib.c ****     GMG12864_Send_command(0x40);
 574              		.loc 1 532 5
 575 006e 4020     		movs	r0, #64
 576 0070 FFF7FEFF 		bl	GMG12864_Send_command
 533:Core/Src/GMG12864_lib.c ****     Delay_ms(1);
 577              		.loc 1 533 5
 578 0074 0120     		movs	r0, #1
 579 0076 FFF7FEFF 		bl	Delay_ms
 534:Core/Src/GMG12864_lib.c ****     // CMD_DISPLAY_ON  CMD_DISPLAY_OFF
 535:Core/Src/GMG12864_lib.c ****     GMG12864_Send_command(0xAF); //Display on
 580              		.loc 1 535 5
 581 007a AF20     		movs	r0, #175
 582 007c FFF7FEFF 		bl	GMG12864_Send_command
 536:Core/Src/GMG12864_lib.c ****     // –ò–Ω–≤–µ—Ä—Ç–∏—Ä–æ–≤–∞–Ω–∏–µ —ç–∫—Ä–∞–Ω–∞
 537:Core/Src/GMG12864_lib.c ****     GMG12864_Send_command(0xA6); //0xA6 - nomal, 0xA7 - revers
 583              		.loc 1 537 5
 584 0080 A620     		movs	r0, #166
 585 0082 FFF7FEFF 		bl	GMG12864_Send_command
 538:Core/Src/GMG12864_lib.c ****     Delay_ms(1);
 586              		.loc 1 538 5
 587 0086 0120     		movs	r0, #1
 588 0088 FFF7FEFF 		bl	Delay_ms
 539:Core/Src/GMG12864_lib.c ****     NSS_OFF;
 589              		.loc 1 539 5
 590 008c 024B     		ldr	r3, .L18
 591 008e 4022     		movs	r2, #64
 592 0090 1A61     		str	r2, [r3, #16]
 540:Core/Src/GMG12864_lib.c **** }
 593              		.loc 1 540 1
 594 0092 00BF     		nop
 595 0094 80BD     		pop	{r7, pc}
 596              	.L19:
 597 0096 00BF     		.align	2
 598              	.L18:
 599 0098 00080140 		.word	1073809408
 600 009c 000C0140 		.word	1073810432
 601              		.cfi_endproc
 602              	.LFE72:
 604              		.section	.text.GMG12864_DrawBitmap,"ax",%progbits
 605              		.align	1
 606              		.global	GMG12864_DrawBitmap
 607              		.syntax unified
 608              		.thumb
ARM GAS  C:\Users\SOLDER~1\AppData\Local\Temp\ccg2RcbO.s 			page 27


 609              		.thumb_func
 611              	GMG12864_DrawBitmap:
 612              	.LFB73:
 541:Core/Src/GMG12864_lib.c **** #elif defined (USE_HAL)
 542:Core/Src/GMG12864_lib.c **** void GMG12864_Init(void) {
 543:Core/Src/GMG12864_lib.c ****     /// –§—É–Ω–∫—Ü–∏—è –∏–Ω–∏—Ü–∏–∞–ª–∏–∑–∞—Ü–∏–∏ –¥–∏—Å–ø–ª–µ—è
 544:Core/Src/GMG12864_lib.c ****     NSS_ON;
 545:Core/Src/GMG12864_lib.c ****     RST_ON;
 546:Core/Src/GMG12864_lib.c ****     HAL_Delay(10);
 547:Core/Src/GMG12864_lib.c ****     RST_OFF;
 548:Core/Src/GMG12864_lib.c ****     HAL_Delay(10);
 549:Core/Src/GMG12864_lib.c ****     // –£—Å—Ç–∞–Ω–æ–≤–∏—Ç–µ —Ä–∞–±–æ—á–∏–π —Ü–∏–∫–ª ( 1/7 –∏–ª–∏ 1/9 ) –≤ –∑–∞–≤–∏—Å–∏–º–æ—Å—Ç–∏ –æ
 550:Core/Src/GMG12864_lib.c ****     GMG12864_Send_command(0xA2);
 551:Core/Src/GMG12864_lib.c ****     HAL_Delay(1);
 552:Core/Src/GMG12864_lib.c ****     // –£—Å—Ç–∞–Ω–æ–≤–∏—Ç–µ –≥–æ—Ä–∏–∑–æ–Ω—Ç–∞–ª—å–Ω—É—é –∏ –≤–µ—Ä—Ç–∏–∫–∞–ª—å–Ω—É—é –æ—Ä–∏–µ–Ω—Ç–∞
 553:Core/Src/GMG12864_lib.c ****     GMG12864_Send_command(0xA0); //ADC selection(SEG0->SEG128)
 554:Core/Src/GMG12864_lib.c ****     GMG12864_Send_command(0xC8); //SHL selection(COM0->COM64)
 555:Core/Src/GMG12864_lib.c ****     HAL_Delay(1);
 556:Core/Src/GMG12864_lib.c ****     // –¥–µ–ª–∏—Ç–µ–ª—å –≤–Ω—É—Ç—Ä–µ–Ω–Ω–µ–≥–æ —Ä–µ–∑–∏—Å—Ç–æ—Ä–∞ —É—Å—Ç–∞–Ω–æ–≤–ª–µ–Ω –Ω–∞ 7 (–æ—Ç
 557:Core/Src/GMG12864_lib.c ****     GMG12864_Send_command(0x20 | 0x7); //Regulator Resistor Selection
 558:Core/Src/GMG12864_lib.c ****     HAL_Delay(1);
 559:Core/Src/GMG12864_lib.c ****     // —É–ø—Ä–∞–≤–ª–µ–Ω–∏–µ –ø–∏—Ç–∞–Ω–∏–µ–º, –≤—Å–µ –≤–Ω—É—Ç—Ä–µ–Ω–Ω–∏–µ –±–ª–æ–∫–∏ –≤–∫–ª—é—á–µ–Ω
 560:Core/Src/GMG12864_lib.c ****     GMG12864_Send_command(0x28 | 0x7);
 561:Core/Src/GMG12864_lib.c ****     HAL_Delay(1);
 562:Core/Src/GMG12864_lib.c ****     // –≤–æ–π—Ç–∏ –≤ —Ä–µ–∂–∏–º –¥–∏–Ω–∞–º–∏—á–µ—Å–∫–æ–≥–æ –∫–æ–Ω—Ç—Ä–∞—Å—Ç–∞
 563:Core/Src/GMG12864_lib.c ****     GMG12864_Send_command(0x81); //Electronic Volume
 564:Core/Src/GMG12864_lib.c ****     GMG12864_Send_command(18); // –ù–∞—Å—Ç—Ä–æ–π–∫–∞ –∫–æ–Ω—Ç—Ä–∞—Å—Ç–∞. –û—Ç—Ä–µ–≥—É–ª–∏—Ä—É–π—Ç–µ
 565:Core/Src/GMG12864_lib.c ****     HAL_Delay(1);
 566:Core/Src/GMG12864_lib.c ****     GMG12864_Send_command(0x40);
 567:Core/Src/GMG12864_lib.c ****     HAL_Delay(1);
 568:Core/Src/GMG12864_lib.c ****     // CMD_DISPLAY_ON  CMD_DISPLAY_OFF
 569:Core/Src/GMG12864_lib.c ****     GMG12864_Send_command(0xAF); //Display on
 570:Core/Src/GMG12864_lib.c ****     // –ò–Ω–≤–µ—Ä—Ç–∏—Ä–æ–≤–∞–Ω–∏–µ —ç–∫—Ä–∞–Ω–∞
 571:Core/Src/GMG12864_lib.c ****     GMG12864_Send_command(0xA6); //0xA6 - nomal, 0xA7 - revers
 572:Core/Src/GMG12864_lib.c ****     HAL_Delay(1);
 573:Core/Src/GMG12864_lib.c ****     NSS_OFF;
 574:Core/Src/GMG12864_lib.c **** }
 575:Core/Src/GMG12864_lib.c **** #endif
 576:Core/Src/GMG12864_lib.c **** 
 577:Core/Src/GMG12864_lib.c **** /*-------------------------–§—É–Ω–∫—Ü–∏—è –∏–Ω–∏—Ü–∏–∞–ª–∏–∑–∞—Ü–∏–∏ –¥–∏—Å–ø–ª–µ—è----------------
 578:Core/Src/GMG12864_lib.c **** 
 579:Core/Src/GMG12864_lib.c **** /*------------------------–§—É–Ω–∫—Ü–∏—è –≤—ã–≤–æ–¥–∞ –∏–∑–æ–±—Ä–∞–∂–µ–Ω–∏—è —Å —É–∫–∞–∑–∞–∏–µ–º –µ
 580:Core/Src/GMG12864_lib.c **** void GMG12864_DrawBitmap(const uint8_t *bitmap, int8_t x, int8_t y, int8_t w, int8_t h) {
 613              		.loc 1 580 89
 614              		.cfi_startproc
 615              		@ args = 4, pretend = 0, frame = 16
 616              		@ frame_needed = 1, uses_anonymous_args = 0
 617 0000 80B5     		push	{r7, lr}
 618              		.cfi_def_cfa_offset 8
 619              		.cfi_offset 7, -8
 620              		.cfi_offset 14, -4
 621 0002 84B0     		sub	sp, sp, #16
 622              		.cfi_def_cfa_offset 24
 623 0004 00AF     		add	r7, sp, #0
 624              		.cfi_def_cfa_register 7
 625 0006 7860     		str	r0, [r7, #4]
 626 0008 0846     		mov	r0, r1
ARM GAS  C:\Users\SOLDER~1\AppData\Local\Temp\ccg2RcbO.s 			page 28


 627 000a 1146     		mov	r1, r2
 628 000c 1A46     		mov	r2, r3
 629 000e 0346     		mov	r3, r0
 630 0010 FB70     		strb	r3, [r7, #3]
 631 0012 0B46     		mov	r3, r1
 632 0014 BB70     		strb	r3, [r7, #2]
 633 0016 1346     		mov	r3, r2
 634 0018 7B70     		strb	r3, [r7, #1]
 581:Core/Src/GMG12864_lib.c **** 	int16_t byteWidth = (w + 7) / 8; // Bitmap scanline pad = whole byte
 635              		.loc 1 581 25
 636 001a 97F90130 		ldrsb	r3, [r7, #1]
 637 001e 0733     		adds	r3, r3, #7
 638              		.loc 1 581 30
 639 0020 002B     		cmp	r3, #0
 640 0022 00DA     		bge	.L21
 641 0024 0733     		adds	r3, r3, #7
 642              	.L21:
 643 0026 DB10     		asrs	r3, r3, #3
 644              		.loc 1 581 10
 645 0028 3B81     		strh	r3, [r7, #8]	@ movhi
 582:Core/Src/GMG12864_lib.c **** 	uint8_t byte = 0;
 646              		.loc 1 582 10
 647 002a 0023     		movs	r3, #0
 648 002c FB73     		strb	r3, [r7, #15]
 649              	.LBB4:
 583:Core/Src/GMG12864_lib.c **** 
 584:Core/Src/GMG12864_lib.c **** 	for (int16_t j = 0; j < h; j++, y++) {
 650              		.loc 1 584 15
 651 002e 0023     		movs	r3, #0
 652 0030 BB81     		strh	r3, [r7, #12]	@ movhi
 653              		.loc 1 584 2
 654 0032 49E0     		b	.L22
 655              	.L29:
 656              	.LBB5:
 585:Core/Src/GMG12864_lib.c **** 
 586:Core/Src/GMG12864_lib.c **** 		for (int16_t i = 0; i < w; i++) {
 657              		.loc 1 586 16
 658 0034 0023     		movs	r3, #0
 659 0036 7B81     		strh	r3, [r7, #10]	@ movhi
 660              		.loc 1 586 3
 661 0038 33E0     		b	.L23
 662              	.L28:
 587:Core/Src/GMG12864_lib.c **** 
 588:Core/Src/GMG12864_lib.c **** 			if (i & 7) {
 663              		.loc 1 588 10
 664 003a 7B89     		ldrh	r3, [r7, #10]
 665 003c 03F00703 		and	r3, r3, #7
 666              		.loc 1 588 7
 667 0040 002B     		cmp	r3, #0
 668 0042 03D0     		beq	.L24
 589:Core/Src/GMG12864_lib.c **** 
 590:Core/Src/GMG12864_lib.c **** 				byte <<= 1;
 669              		.loc 1 590 10
 670 0044 FB7B     		ldrb	r3, [r7, #15]
 671 0046 5B00     		lsls	r3, r3, #1
 672 0048 FB73     		strb	r3, [r7, #15]
 673 004a 12E0     		b	.L25
ARM GAS  C:\Users\SOLDER~1\AppData\Local\Temp\ccg2RcbO.s 			page 29


 674              	.L24:
 591:Core/Src/GMG12864_lib.c **** 			} else {
 592:Core/Src/GMG12864_lib.c **** 
 593:Core/Src/GMG12864_lib.c **** 				byte = (*(const unsigned char*) (&bitmap[j * byteWidth + i / 8]));
 675              		.loc 1 593 48
 676 004c B7F90C30 		ldrsh	r3, [r7, #12]
 677 0050 B7F90820 		ldrsh	r2, [r7, #8]
 678 0054 03FB02F2 		mul	r2, r3, r2
 679              		.loc 1 593 64
 680 0058 B7F90A30 		ldrsh	r3, [r7, #10]
 681 005c 002B     		cmp	r3, #0
 682 005e 00DA     		bge	.L26
 683 0060 0733     		adds	r3, r3, #7
 684              	.L26:
 685 0062 DB10     		asrs	r3, r3, #3
 686 0064 1BB2     		sxth	r3, r3
 687              		.loc 1 593 60
 688 0066 1344     		add	r3, r3, r2
 689 0068 1A46     		mov	r2, r3
 690              		.loc 1 593 38
 691 006a 7B68     		ldr	r3, [r7, #4]
 692 006c 1344     		add	r3, r3, r2
 693              		.loc 1 593 10
 694 006e 1B78     		ldrb	r3, [r3]
 695 0070 FB73     		strb	r3, [r7, #15]
 696              	.L25:
 594:Core/Src/GMG12864_lib.c **** 			}
 595:Core/Src/GMG12864_lib.c **** 
 596:Core/Src/GMG12864_lib.c **** 			if (byte & 0x80) {
 697              		.loc 1 596 8
 698 0072 97F90F30 		ldrsb	r3, [r7, #15]
 699              		.loc 1 596 7
 700 0076 002B     		cmp	r3, #0
 701 0078 0DDA     		bge	.L27
 597:Core/Src/GMG12864_lib.c **** 				GMG12864_Draw_pixel(x + i, y, 1);
 702              		.loc 1 597 27
 703 007a 97F90330 		ldrsb	r3, [r7, #3]
 704 007e 9AB2     		uxth	r2, r3
 705 0080 7B89     		ldrh	r3, [r7, #10]
 706 0082 1344     		add	r3, r3, r2
 707 0084 9BB2     		uxth	r3, r3
 708              		.loc 1 597 5
 709 0086 1BB2     		sxth	r3, r3
 710 0088 97F90220 		ldrsb	r2, [r7, #2]
 711 008c 11B2     		sxth	r1, r2
 712 008e 0122     		movs	r2, #1
 713 0090 1846     		mov	r0, r3
 714 0092 FFF7FEFF 		bl	GMG12864_Draw_pixel
 715              	.L27:
 586:Core/Src/GMG12864_lib.c **** 
 716              		.loc 1 586 31 discriminator 2
 717 0096 B7F90A30 		ldrsh	r3, [r7, #10]
 718 009a 9BB2     		uxth	r3, r3
 719 009c 0133     		adds	r3, r3, #1
 720 009e 9BB2     		uxth	r3, r3
 721 00a0 7B81     		strh	r3, [r7, #10]	@ movhi
 722              	.L23:
ARM GAS  C:\Users\SOLDER~1\AppData\Local\Temp\ccg2RcbO.s 			page 30


 586:Core/Src/GMG12864_lib.c **** 
 723              		.loc 1 586 25 discriminator 1
 724 00a2 97F90130 		ldrsb	r3, [r7, #1]
 725 00a6 1BB2     		sxth	r3, r3
 586:Core/Src/GMG12864_lib.c **** 
 726              		.loc 1 586 3 discriminator 1
 727 00a8 B7F90A20 		ldrsh	r2, [r7, #10]
 728 00ac 9A42     		cmp	r2, r3
 729 00ae C4DB     		blt	.L28
 730              	.LBE5:
 584:Core/Src/GMG12864_lib.c **** 
 731              		.loc 1 584 30 discriminator 2
 732 00b0 B7F90C30 		ldrsh	r3, [r7, #12]
 733 00b4 9BB2     		uxth	r3, r3
 734 00b6 0133     		adds	r3, r3, #1
 735 00b8 9BB2     		uxth	r3, r3
 736 00ba BB81     		strh	r3, [r7, #12]	@ movhi
 584:Core/Src/GMG12864_lib.c **** 
 737              		.loc 1 584 35 discriminator 2
 738 00bc 97F90230 		ldrsb	r3, [r7, #2]
 739 00c0 DBB2     		uxtb	r3, r3
 740 00c2 0133     		adds	r3, r3, #1
 741 00c4 DBB2     		uxtb	r3, r3
 742 00c6 BB70     		strb	r3, [r7, #2]
 743              	.L22:
 584:Core/Src/GMG12864_lib.c **** 
 744              		.loc 1 584 24 discriminator 1
 745 00c8 97F91830 		ldrsb	r3, [r7, #24]
 746 00cc 1BB2     		sxth	r3, r3
 584:Core/Src/GMG12864_lib.c **** 
 747              		.loc 1 584 2 discriminator 1
 748 00ce B7F90C20 		ldrsh	r2, [r7, #12]
 749 00d2 9A42     		cmp	r2, r3
 750 00d4 AEDB     		blt	.L29
 751              	.LBE4:
 598:Core/Src/GMG12864_lib.c **** 			}
 599:Core/Src/GMG12864_lib.c **** 		}
 600:Core/Src/GMG12864_lib.c **** 	}
 601:Core/Src/GMG12864_lib.c **** }
 752              		.loc 1 601 1
 753 00d6 00BF     		nop
 754 00d8 00BF     		nop
 755 00da 1037     		adds	r7, r7, #16
 756              		.cfi_def_cfa_offset 8
 757 00dc BD46     		mov	sp, r7
 758              		.cfi_def_cfa_register 13
 759              		@ sp needed
 760 00de 80BD     		pop	{r7, pc}
 761              		.cfi_endproc
 762              	.LFE73:
 764              		.section	.text.GMG12864_Draw_pixel,"ax",%progbits
 765              		.align	1
 766              		.global	GMG12864_Draw_pixel
 767              		.syntax unified
 768              		.thumb
 769              		.thumb_func
 771              	GMG12864_Draw_pixel:
ARM GAS  C:\Users\SOLDER~1\AppData\Local\Temp\ccg2RcbO.s 			page 31


 772              	.LFB74:
 602:Core/Src/GMG12864_lib.c **** /*------------------------–§—É–Ω–∫—Ü–∏—è –≤—ã–≤–æ–¥–∞ –∏–∑–æ–±—Ä–∞–∂–µ–Ω–∏—è —Å —É–∫–∞–∑–∞–∏–µ–º –µ
 603:Core/Src/GMG12864_lib.c **** 
 604:Core/Src/GMG12864_lib.c **** /*------------------------–§—É–Ω–∫—Ü–∏—è —Ä–∏—Å–æ–≤–∞–Ω–∏—è –ø–∏–∫—Å–µ–ª—è-------------------------
 605:Core/Src/GMG12864_lib.c **** void GMG12864_Draw_pixel(int16_t x, int16_t y, uint8_t color) {
 773              		.loc 1 605 63
 774              		.cfi_startproc
 775              		@ args = 0, pretend = 0, frame = 16
 776              		@ frame_needed = 1, uses_anonymous_args = 0
 777              		@ link register save eliminated.
 778 0000 80B4     		push	{r7}
 779              		.cfi_def_cfa_offset 4
 780              		.cfi_offset 7, -4
 781 0002 85B0     		sub	sp, sp, #20
 782              		.cfi_def_cfa_offset 24
 783 0004 00AF     		add	r7, sp, #0
 784              		.cfi_def_cfa_register 7
 785 0006 0346     		mov	r3, r0
 786 0008 FB80     		strh	r3, [r7, #6]	@ movhi
 787 000a 0B46     		mov	r3, r1	@ movhi
 788 000c BB80     		strh	r3, [r7, #4]	@ movhi
 789 000e 1346     		mov	r3, r2
 790 0010 FB70     		strb	r3, [r7, #3]
 606:Core/Src/GMG12864_lib.c **** 
 607:Core/Src/GMG12864_lib.c **** 	if (x >= GMG12864_width || x < 0 || y >= GMG12864_height || y < 0) {
 791              		.loc 1 607 8
 792 0012 B7F90630 		ldrsh	r3, [r7, #6]
 793 0016 2F4A     		ldr	r2, .L37
 794 0018 1278     		ldrb	r2, [r2]	@ zero_extendqisi2
 795              		.loc 1 607 5
 796 001a 9342     		cmp	r3, r2
 797 001c 55DA     		bge	.L36
 798              		.loc 1 607 26 discriminator 1
 799 001e B7F90630 		ldrsh	r3, [r7, #6]
 800 0022 002B     		cmp	r3, #0
 801 0024 51DB     		blt	.L36
 802              		.loc 1 607 40 discriminator 2
 803 0026 B7F90430 		ldrsh	r3, [r7, #4]
 804 002a 2B4A     		ldr	r2, .L37+4
 805 002c 1278     		ldrb	r2, [r2]	@ zero_extendqisi2
 806              		.loc 1 607 35 discriminator 2
 807 002e 9342     		cmp	r3, r2
 808 0030 4BDA     		bge	.L36
 809              		.loc 1 607 59 discriminator 3
 810 0032 B7F90430 		ldrsh	r3, [r7, #4]
 811 0036 002B     		cmp	r3, #0
 812 0038 47DB     		blt	.L36
 813              	.LBB6:
 608:Core/Src/GMG12864_lib.c **** 		return;
 609:Core/Src/GMG12864_lib.c **** 	} else {
 610:Core/Src/GMG12864_lib.c **** 		uint16_t array_pos = x + ((y / 8) * GMG12864_width);
 814              		.loc 1 610 26
 815 003a B7F90430 		ldrsh	r3, [r7, #4]
 816 003e 002B     		cmp	r3, #0
 817 0040 00DA     		bge	.L34
 818 0042 0733     		adds	r3, r3, #7
 819              	.L34:
ARM GAS  C:\Users\SOLDER~1\AppData\Local\Temp\ccg2RcbO.s 			page 32


 820 0044 DB10     		asrs	r3, r3, #3
 821 0046 1BB2     		sxth	r3, r3
 822 0048 9BB2     		uxth	r3, r3
 823 004a 224A     		ldr	r2, .L37
 824 004c 1278     		ldrb	r2, [r2]	@ zero_extendqisi2
 825 004e 92B2     		uxth	r2, r2
 826 0050 02FB03F3 		mul	r3, r2, r3
 827 0054 9AB2     		uxth	r2, r3
 828 0056 FB88     		ldrh	r3, [r7, #6]
 829              		.loc 1 610 12
 830 0058 1344     		add	r3, r3, r2
 831 005a FB81     		strh	r3, [r7, #14]	@ movhi
 611:Core/Src/GMG12864_lib.c **** 
 612:Core/Src/GMG12864_lib.c **** 		if (color) {
 832              		.loc 1 612 6
 833 005c FB78     		ldrb	r3, [r7, #3]	@ zero_extendqisi2
 834 005e 002B     		cmp	r3, #0
 835 0060 18D0     		beq	.L35
 613:Core/Src/GMG12864_lib.c **** 			Frame_buffer[array_pos] |= 1 << (y % 8);
 836              		.loc 1 613 28
 837 0062 FB89     		ldrh	r3, [r7, #14]
 838 0064 1D4A     		ldr	r2, .L37+8
 839 0066 D35C     		ldrb	r3, [r2, r3]	@ zero_extendqisi2
 840 0068 5AB2     		sxtb	r2, r3
 841              		.loc 1 613 39
 842 006a B7F90430 		ldrsh	r3, [r7, #4]
 843 006e 5942     		rsbs	r1, r3, #0
 844 0070 03F00703 		and	r3, r3, #7
 845 0074 01F00701 		and	r1, r1, #7
 846 0078 58BF     		it	pl
 847 007a 4B42     		rsbpl	r3, r1, #0
 848 007c 1BB2     		sxth	r3, r3
 849 007e 1946     		mov	r1, r3
 850              		.loc 1 613 33
 851 0080 0123     		movs	r3, #1
 852 0082 8B40     		lsls	r3, r3, r1
 853              		.loc 1 613 28
 854 0084 5BB2     		sxtb	r3, r3
 855 0086 1343     		orrs	r3, r3, r2
 856 0088 5AB2     		sxtb	r2, r3
 857 008a FB89     		ldrh	r3, [r7, #14]
 858 008c D1B2     		uxtb	r1, r2
 859 008e 134A     		ldr	r2, .L37+8
 860 0090 D154     		strb	r1, [r2, r3]
 861 0092 1BE0     		b	.L30
 862              	.L35:
 614:Core/Src/GMG12864_lib.c **** 		} else {
 615:Core/Src/GMG12864_lib.c **** 			Frame_buffer[array_pos] &= 0xFF ^ 1 << (y % 8);
 863              		.loc 1 615 28
 864 0094 FB89     		ldrh	r3, [r7, #14]
 865 0096 114A     		ldr	r2, .L37+8
 866 0098 D35C     		ldrb	r3, [r2, r3]	@ zero_extendqisi2
 867 009a 5AB2     		sxtb	r2, r3
 868              		.loc 1 615 46
 869 009c B7F90430 		ldrsh	r3, [r7, #4]
 870 00a0 5942     		rsbs	r1, r3, #0
 871 00a2 03F00703 		and	r3, r3, #7
ARM GAS  C:\Users\SOLDER~1\AppData\Local\Temp\ccg2RcbO.s 			page 33


 872 00a6 01F00701 		and	r1, r1, #7
 873 00aa 58BF     		it	pl
 874 00ac 4B42     		rsbpl	r3, r1, #0
 875 00ae 1BB2     		sxth	r3, r3
 876 00b0 1946     		mov	r1, r3
 877              		.loc 1 615 40
 878 00b2 0123     		movs	r3, #1
 879 00b4 8B40     		lsls	r3, r3, r1
 880              		.loc 1 615 36
 881 00b6 5BB2     		sxtb	r3, r3
 882 00b8 DB43     		mvns	r3, r3
 883 00ba 5BB2     		sxtb	r3, r3
 884              		.loc 1 615 28
 885 00bc 1340     		ands	r3, r3, r2
 886 00be 5AB2     		sxtb	r2, r3
 887 00c0 FB89     		ldrh	r3, [r7, #14]
 888 00c2 D1B2     		uxtb	r1, r2
 889 00c4 054A     		ldr	r2, .L37+8
 890 00c6 D154     		strb	r1, [r2, r3]
 891 00c8 00E0     		b	.L30
 892              	.L36:
 893              	.LBE6:
 608:Core/Src/GMG12864_lib.c **** 	} else {
 894              		.loc 1 608 3
 895 00ca 00BF     		nop
 896              	.L30:
 616:Core/Src/GMG12864_lib.c **** 		}
 617:Core/Src/GMG12864_lib.c **** 	}
 618:Core/Src/GMG12864_lib.c **** 
 619:Core/Src/GMG12864_lib.c **** }
 897              		.loc 1 619 1
 898 00cc 1437     		adds	r7, r7, #20
 899              		.cfi_def_cfa_offset 4
 900 00ce BD46     		mov	sp, r7
 901              		.cfi_def_cfa_register 13
 902              		@ sp needed
 903 00d0 80BC     		pop	{r7}
 904              		.cfi_restore 7
 905              		.cfi_def_cfa_offset 0
 906 00d2 7047     		bx	lr
 907              	.L38:
 908              		.align	2
 909              	.L37:
 910 00d4 00000000 		.word	GMG12864_width
 911 00d8 00000000 		.word	GMG12864_height
 912 00dc 00000000 		.word	Frame_buffer
 913              		.cfi_endproc
 914              	.LFE74:
 916              		.section	.text.GMG12864_Update,"ax",%progbits
 917              		.align	1
 918              		.global	GMG12864_Update
 919              		.syntax unified
 920              		.thumb
 921              		.thumb_func
 923              	GMG12864_Update:
 924              	.LFB75:
 620:Core/Src/GMG12864_lib.c **** /*------------------------–§—É–Ω–∫—Ü–∏—è —Ä–∏—Å–æ–≤–∞–Ω–∏—è –ø–∏–∫—Å–µ–ª—è-------------------------
ARM GAS  C:\Users\SOLDER~1\AppData\Local\Temp\ccg2RcbO.s 			page 34


 621:Core/Src/GMG12864_lib.c **** 
 622:Core/Src/GMG12864_lib.c **** /*---------------------–§—É–Ω–∫—Ü–∏—è –≤—ã–≤–æ–¥–∞ –±—É—Ñ–µ—Ä–∞ –∫–∞–¥—Ä–∞ –Ω–∞ –¥–∏—Å–ø–ª–µ–π-----
 623:Core/Src/GMG12864_lib.c **** void GMG12864_Update(void) {
 925              		.loc 1 623 28
 926              		.cfi_startproc
 927              		@ args = 0, pretend = 0, frame = 8
 928              		@ frame_needed = 1, uses_anonymous_args = 0
 929 0000 80B5     		push	{r7, lr}
 930              		.cfi_def_cfa_offset 8
 931              		.cfi_offset 7, -8
 932              		.cfi_offset 14, -4
 933 0002 82B0     		sub	sp, sp, #8
 934              		.cfi_def_cfa_offset 16
 935 0004 00AF     		add	r7, sp, #0
 936              		.cfi_def_cfa_register 7
 624:Core/Src/GMG12864_lib.c **** 	NSS_ON;
 937              		.loc 1 624 2
 938 0006 1C4B     		ldr	r3, .L44
 939 0008 4FF48002 		mov	r2, #4194304
 940 000c 1A61     		str	r2, [r3, #16]
 941              	.LBB7:
 625:Core/Src/GMG12864_lib.c **** 	for (uint8_t y = 0; y < 8; y++) {
 942              		.loc 1 625 15
 943 000e 0023     		movs	r3, #0
 944 0010 FB71     		strb	r3, [r7, #7]
 945              		.loc 1 625 2
 946 0012 27E0     		b	.L40
 947              	.L43:
 626:Core/Src/GMG12864_lib.c **** 		ST7565_SetX(0);
 948              		.loc 1 626 3
 949 0014 1020     		movs	r0, #16
 950 0016 FFF7FEFF 		bl	GMG12864_Send_command
 951 001a 0020     		movs	r0, #0
 952 001c FFF7FEFF 		bl	GMG12864_Send_command
 627:Core/Src/GMG12864_lib.c **** 		ST7565_SetY((int16_t )y);
 953              		.loc 1 627 3
 954 0020 97F90730 		ldrsb	r3, [r7, #7]
 955 0024 03F00703 		and	r3, r3, #7
 956 0028 5BB2     		sxtb	r3, r3
 957 002a 63F04F03 		orn	r3, r3, #79
 958 002e 5BB2     		sxtb	r3, r3
 959 0030 DBB2     		uxtb	r3, r3
 960 0032 1846     		mov	r0, r3
 961 0034 FFF7FEFF 		bl	GMG12864_Send_command
 962              	.LBB8:
 628:Core/Src/GMG12864_lib.c **** 		for (uint8_t x = 0; x < 128; x++) {
 963              		.loc 1 628 16
 964 0038 0023     		movs	r3, #0
 965 003a BB71     		strb	r3, [r7, #6]
 966              		.loc 1 628 3
 967 003c 0BE0     		b	.L41
 968              	.L42:
 629:Core/Src/GMG12864_lib.c **** 			GMG12864_Send_data(Frame_buffer[x + 128 * y]);
 969              		.loc 1 629 38 discriminator 3
 970 003e BA79     		ldrb	r2, [r7, #6]	@ zero_extendqisi2
 971              		.loc 1 629 44 discriminator 3
 972 0040 FB79     		ldrb	r3, [r7, #7]	@ zero_extendqisi2
ARM GAS  C:\Users\SOLDER~1\AppData\Local\Temp\ccg2RcbO.s 			page 35


 973 0042 DB01     		lsls	r3, r3, #7
 974              		.loc 1 629 38 discriminator 3
 975 0044 1344     		add	r3, r3, r2
 976              		.loc 1 629 4 discriminator 3
 977 0046 0D4A     		ldr	r2, .L44+4
 978 0048 D35C     		ldrb	r3, [r2, r3]	@ zero_extendqisi2
 979 004a 1846     		mov	r0, r3
 980 004c FFF7FEFF 		bl	GMG12864_Send_data
 628:Core/Src/GMG12864_lib.c **** 		for (uint8_t x = 0; x < 128; x++) {
 981              		.loc 1 628 33 discriminator 3
 982 0050 BB79     		ldrb	r3, [r7, #6]	@ zero_extendqisi2
 983 0052 0133     		adds	r3, r3, #1
 984 0054 BB71     		strb	r3, [r7, #6]
 985              	.L41:
 628:Core/Src/GMG12864_lib.c **** 		for (uint8_t x = 0; x < 128; x++) {
 986              		.loc 1 628 25 discriminator 1
 987 0056 97F90630 		ldrsb	r3, [r7, #6]
 628:Core/Src/GMG12864_lib.c **** 		for (uint8_t x = 0; x < 128; x++) {
 988              		.loc 1 628 3 discriminator 1
 989 005a 002B     		cmp	r3, #0
 990 005c EFDA     		bge	.L42
 991              	.LBE8:
 625:Core/Src/GMG12864_lib.c **** 		ST7565_SetX(0);
 992              		.loc 1 625 30 discriminator 2
 993 005e FB79     		ldrb	r3, [r7, #7]	@ zero_extendqisi2
 994 0060 0133     		adds	r3, r3, #1
 995 0062 FB71     		strb	r3, [r7, #7]
 996              	.L40:
 625:Core/Src/GMG12864_lib.c **** 		ST7565_SetX(0);
 997              		.loc 1 625 2 discriminator 1
 998 0064 FB79     		ldrb	r3, [r7, #7]	@ zero_extendqisi2
 999 0066 072B     		cmp	r3, #7
 1000 0068 D4D9     		bls	.L43
 1001              	.LBE7:
 630:Core/Src/GMG12864_lib.c **** 		}
 631:Core/Src/GMG12864_lib.c **** 	}
 632:Core/Src/GMG12864_lib.c **** 	NSS_OFF;
 1002              		.loc 1 632 2
 1003 006a 034B     		ldr	r3, .L44
 1004 006c 4022     		movs	r2, #64
 1005 006e 1A61     		str	r2, [r3, #16]
 633:Core/Src/GMG12864_lib.c **** }
 1006              		.loc 1 633 1
 1007 0070 00BF     		nop
 1008 0072 0837     		adds	r7, r7, #8
 1009              		.cfi_def_cfa_offset 8
 1010 0074 BD46     		mov	sp, r7
 1011              		.cfi_def_cfa_register 13
 1012              		@ sp needed
 1013 0076 80BD     		pop	{r7, pc}
 1014              	.L45:
 1015              		.align	2
 1016              	.L44:
 1017 0078 00080140 		.word	1073809408
 1018 007c 00000000 		.word	Frame_buffer
 1019              		.cfi_endproc
 1020              	.LFE75:
ARM GAS  C:\Users\SOLDER~1\AppData\Local\Temp\ccg2RcbO.s 			page 36


 1022              		.section	.text.GMG12864_Print_symbol_5x7,"ax",%progbits
 1023              		.align	1
 1024              		.global	GMG12864_Print_symbol_5x7
 1025              		.syntax unified
 1026              		.thumb
 1027              		.thumb_func
 1029              	GMG12864_Print_symbol_5x7:
 1030              	.LFB76:
 634:Core/Src/GMG12864_lib.c **** /*---------------------–§—É–Ω–∫—Ü–∏—è –≤—ã–≤–æ–¥–∞ –±—É—Ñ–µ—Ä–∞ –∫–∞–¥—Ä–∞ –Ω–∞ –¥–∏—Å–ø–ª–µ–π-----
 635:Core/Src/GMG12864_lib.c **** 
 636:Core/Src/GMG12864_lib.c **** /*---------------------–§—É–Ω–∫—Ü–∏—è –≤—ã–≤–æ–¥–∞ —Å–∏–º–≤–æ–ª–∞ –Ω–∞ –¥–∏—Å–ø–ª–µ–π--------------
 637:Core/Src/GMG12864_lib.c **** void GMG12864_Print_symbol_5x7(uint8_t x, uint8_t y, uint16_t symbol, uint8_t inversion) {
 1031              		.loc 1 637 90
 1032              		.cfi_startproc
 1033              		@ args = 0, pretend = 0, frame = 16
 1034              		@ frame_needed = 1, uses_anonymous_args = 0
 1035 0000 90B5     		push	{r4, r7, lr}
 1036              		.cfi_def_cfa_offset 12
 1037              		.cfi_offset 4, -12
 1038              		.cfi_offset 7, -8
 1039              		.cfi_offset 14, -4
 1040 0002 85B0     		sub	sp, sp, #20
 1041              		.cfi_def_cfa_offset 32
 1042 0004 00AF     		add	r7, sp, #0
 1043              		.cfi_def_cfa_register 7
 1044 0006 0446     		mov	r4, r0
 1045 0008 0846     		mov	r0, r1
 1046 000a 1146     		mov	r1, r2
 1047 000c 1A46     		mov	r2, r3
 1048 000e 2346     		mov	r3, r4
 1049 0010 FB71     		strb	r3, [r7, #7]
 1050 0012 0346     		mov	r3, r0
 1051 0014 BB71     		strb	r3, [r7, #6]
 1052 0016 0B46     		mov	r3, r1	@ movhi
 1053 0018 BB80     		strh	r3, [r7, #4]	@ movhi
 1054 001a 1346     		mov	r3, r2
 1055 001c FB70     		strb	r3, [r7, #3]
 638:Core/Src/GMG12864_lib.c **** /// –§—É–Ω–∫—Ü–∏—è –≤—ã–≤–æ–¥–∞ —Å–∏–º–≤–æ–ª–∞ –Ω–∞ –¥–∏—Å–ø–ª–µ–π
 639:Core/Src/GMG12864_lib.c **** 	uint8_t x_start = x; //–Ω–∞—á–∞–ª—å–Ω–æ–µ –ø–æ–ª–æ–∂–µ–Ω–∏–µ –ø–æ x
 1056              		.loc 1 639 10
 1057 001e FB79     		ldrb	r3, [r7, #7]
 1058 0020 3B73     		strb	r3, [r7, #12]
 640:Core/Src/GMG12864_lib.c **** 	uint8_t x_stop = x + 5; //–∫–æ–Ω–µ—á–Ω–æ–µ –ø–æ–ª–æ–∂–µ–Ω–∏–µ –ø–æ x —Å —É—á–µ—Ç–æ–º –º–µ–∂—Å–∏–º–
 1059              		.loc 1 640 10
 1060 0022 FB79     		ldrb	r3, [r7, #7]
 1061 0024 0533     		adds	r3, r3, #5
 1062 0026 FB72     		strb	r3, [r7, #11]
 1063              	.LBB9:
 641:Core/Src/GMG12864_lib.c **** 	for (uint8_t x = x_start; x <= x_stop; x++) {
 1064              		.loc 1 641 15
 1065 0028 3B7B     		ldrb	r3, [r7, #12]
 1066 002a FB73     		strb	r3, [r7, #15]
 1067              		.loc 1 641 2
 1068 002c 86E0     		b	.L47
 1069              	.L60:
 642:Core/Src/GMG12864_lib.c **** 		if (x == x_stop) { //–ó–∞–ø–æ–ª–Ω—è–µ–º –º–µ–∂—Å–∏–º–≤–æ–ª—å–Ω—ã–µ –∏–Ω—Ç–µ—Ä–≤–∞–ª—ã
 1070              		.loc 1 642 6
ARM GAS  C:\Users\SOLDER~1\AppData\Local\Temp\ccg2RcbO.s 			page 37


 1071 002e FA7B     		ldrb	r2, [r7, #15]	@ zero_extendqisi2
 1072 0030 FB7A     		ldrb	r3, [r7, #11]	@ zero_extendqisi2
 1073 0032 9A42     		cmp	r2, r3
 1074 0034 27D1     		bne	.L48
 1075              	.LBB10:
 643:Core/Src/GMG12864_lib.c **** 			for (uint8_t i = 0; i <= 6; i++) { // –æ—Ç 0 –¥–æ 6, —Ç.–∫. —à—Ä–∏—Ñ—Ç –≤—ã—Å–æ—Ç–æ–π 7 –ø–∏–∫—Å
 1076              		.loc 1 643 17
 1077 0036 0023     		movs	r3, #0
 1078 0038 BB73     		strb	r3, [r7, #14]
 1079              		.loc 1 643 4
 1080 003a 20E0     		b	.L49
 1081              	.L52:
 644:Core/Src/GMG12864_lib.c **** 				if (0x00 & (1 << i)) {
 645:Core/Src/GMG12864_lib.c **** 					if (inversion) {
 646:Core/Src/GMG12864_lib.c **** 						GMG12864_Draw_pixel(x, y + i, 0); //–ó–∞–∫—Ä–∞—Å–∏—Ç—å –ø–∏–∫—Å–µ–ª—å
 647:Core/Src/GMG12864_lib.c **** 					} else {
 648:Core/Src/GMG12864_lib.c **** 						GMG12864_Draw_pixel(x, y + i, 1); //–ó–∞–∫—Ä–∞—Å–∏—Ç—å –ø–∏–∫—Å–µ–ª—å
 649:Core/Src/GMG12864_lib.c **** 					}
 650:Core/Src/GMG12864_lib.c **** 				} else {
 651:Core/Src/GMG12864_lib.c **** 					if (inversion) {
 1082              		.loc 1 651 9
 1083 003c FB78     		ldrb	r3, [r7, #3]	@ zero_extendqisi2
 1084 003e 002B     		cmp	r3, #0
 1085 0040 0DD0     		beq	.L50
 652:Core/Src/GMG12864_lib.c **** 						GMG12864_Draw_pixel(x, y + i, 1); //–û—á–∏—Å—Ç–∏—Ç—å –ø–∏–∫—Å–µ–ª—å
 1086              		.loc 1 652 7
 1087 0042 FB7B     		ldrb	r3, [r7, #15]	@ zero_extendqisi2
 1088 0044 18B2     		sxth	r0, r3
 1089              		.loc 1 652 32
 1090 0046 BB79     		ldrb	r3, [r7, #6]	@ zero_extendqisi2
 1091 0048 9AB2     		uxth	r2, r3
 1092 004a BB7B     		ldrb	r3, [r7, #14]	@ zero_extendqisi2
 1093 004c 9BB2     		uxth	r3, r3
 1094 004e 1344     		add	r3, r3, r2
 1095 0050 9BB2     		uxth	r3, r3
 1096              		.loc 1 652 7
 1097 0052 1BB2     		sxth	r3, r3
 1098 0054 0122     		movs	r2, #1
 1099 0056 1946     		mov	r1, r3
 1100 0058 FFF7FEFF 		bl	GMG12864_Draw_pixel
 1101 005c 0CE0     		b	.L51
 1102              	.L50:
 653:Core/Src/GMG12864_lib.c **** 					} else {
 654:Core/Src/GMG12864_lib.c **** 						GMG12864_Draw_pixel(x, y + i, 0); //–û—á–∏—Å—Ç–∏—Ç—å –ø–∏–∫—Å–µ–ª—å
 1103              		.loc 1 654 7
 1104 005e FB7B     		ldrb	r3, [r7, #15]	@ zero_extendqisi2
 1105 0060 18B2     		sxth	r0, r3
 1106              		.loc 1 654 32
 1107 0062 BB79     		ldrb	r3, [r7, #6]	@ zero_extendqisi2
 1108 0064 9AB2     		uxth	r2, r3
 1109 0066 BB7B     		ldrb	r3, [r7, #14]	@ zero_extendqisi2
 1110 0068 9BB2     		uxth	r3, r3
 1111 006a 1344     		add	r3, r3, r2
 1112 006c 9BB2     		uxth	r3, r3
 1113              		.loc 1 654 7
 1114 006e 1BB2     		sxth	r3, r3
 1115 0070 0022     		movs	r2, #0
ARM GAS  C:\Users\SOLDER~1\AppData\Local\Temp\ccg2RcbO.s 			page 38


 1116 0072 1946     		mov	r1, r3
 1117 0074 FFF7FEFF 		bl	GMG12864_Draw_pixel
 1118              	.L51:
 643:Core/Src/GMG12864_lib.c **** 				if (0x00 & (1 << i)) {
 1119              		.loc 1 643 33 discriminator 2
 1120 0078 BB7B     		ldrb	r3, [r7, #14]	@ zero_extendqisi2
 1121 007a 0133     		adds	r3, r3, #1
 1122 007c BB73     		strb	r3, [r7, #14]
 1123              	.L49:
 643:Core/Src/GMG12864_lib.c **** 				if (0x00 & (1 << i)) {
 1124              		.loc 1 643 4 discriminator 1
 1125 007e BB7B     		ldrb	r3, [r7, #14]	@ zero_extendqisi2
 1126 0080 062B     		cmp	r3, #6
 1127 0082 DBD9     		bls	.L52
 1128 0084 57E0     		b	.L53
 1129              	.L48:
 1130              	.LBE10:
 1131              	.LBB11:
 655:Core/Src/GMG12864_lib.c **** 					}
 656:Core/Src/GMG12864_lib.c **** 				}
 657:Core/Src/GMG12864_lib.c **** 			}
 658:Core/Src/GMG12864_lib.c **** 		} else { //–ó–∞–ø–æ–ª–Ω—è–µ–º –ø–æ–ª–µ–∑–Ω–æ–π –∏–Ω—Ñ–æ—Ä–º–∞—Ü–∏–µ–π
 659:Core/Src/GMG12864_lib.c **** 			for (uint8_t i = 0; i <= 6; i++) { // –æ—Ç 0 –¥–æ 6, —Ç.–∫. —à—Ä–∏—Ñ—Ç –≤—ã—Å–æ—Ç–æ–π 7 –ø–∏–∫—Å
 1132              		.loc 1 659 17
 1133 0086 0023     		movs	r3, #0
 1134 0088 7B73     		strb	r3, [r7, #13]
 1135              		.loc 1 659 4
 1136 008a 51E0     		b	.L54
 1137              	.L59:
 660:Core/Src/GMG12864_lib.c **** 				if (Font_5x7[(symbol * 5) + x - x_start] & (1 << i)) {
 1138              		.loc 1 660 26
 1139 008c BA88     		ldrh	r2, [r7, #4]
 1140 008e 1346     		mov	r3, r2
 1141 0090 9B00     		lsls	r3, r3, #2
 1142 0092 1A44     		add	r2, r2, r3
 1143              		.loc 1 660 31
 1144 0094 FB7B     		ldrb	r3, [r7, #15]	@ zero_extendqisi2
 1145 0096 1A44     		add	r2, r2, r3
 1146              		.loc 1 660 35
 1147 0098 3B7B     		ldrb	r3, [r7, #12]	@ zero_extendqisi2
 1148 009a D31A     		subs	r3, r2, r3
 1149              		.loc 1 660 17
 1150 009c 2C4A     		ldr	r2, .L61
 1151 009e D35C     		ldrb	r3, [r2, r3]	@ zero_extendqisi2
 1152 00a0 1A46     		mov	r2, r3
 1153              		.loc 1 660 9
 1154 00a2 7B7B     		ldrb	r3, [r7, #13]	@ zero_extendqisi2
 1155 00a4 42FA03F3 		asr	r3, r2, r3
 1156 00a8 03F00103 		and	r3, r3, #1
 1157              		.loc 1 660 8
 1158 00ac 002B     		cmp	r3, #0
 1159 00ae 1ED0     		beq	.L55
 661:Core/Src/GMG12864_lib.c **** 					if (inversion) {
 1160              		.loc 1 661 9
 1161 00b0 FB78     		ldrb	r3, [r7, #3]	@ zero_extendqisi2
 1162 00b2 002B     		cmp	r3, #0
 1163 00b4 0DD0     		beq	.L56
ARM GAS  C:\Users\SOLDER~1\AppData\Local\Temp\ccg2RcbO.s 			page 39


 662:Core/Src/GMG12864_lib.c **** 						GMG12864_Draw_pixel(x, y + i, 0); //–ó–∞–∫—Ä–∞—Å–∏—Ç—å –ø–∏–∫—Å–µ–ª—å
 1164              		.loc 1 662 7
 1165 00b6 FB7B     		ldrb	r3, [r7, #15]	@ zero_extendqisi2
 1166 00b8 18B2     		sxth	r0, r3
 1167              		.loc 1 662 32
 1168 00ba BB79     		ldrb	r3, [r7, #6]	@ zero_extendqisi2
 1169 00bc 9AB2     		uxth	r2, r3
 1170 00be 7B7B     		ldrb	r3, [r7, #13]	@ zero_extendqisi2
 1171 00c0 9BB2     		uxth	r3, r3
 1172 00c2 1344     		add	r3, r3, r2
 1173 00c4 9BB2     		uxth	r3, r3
 1174              		.loc 1 662 7
 1175 00c6 1BB2     		sxth	r3, r3
 1176 00c8 0022     		movs	r2, #0
 1177 00ca 1946     		mov	r1, r3
 1178 00cc FFF7FEFF 		bl	GMG12864_Draw_pixel
 1179 00d0 2BE0     		b	.L57
 1180              	.L56:
 663:Core/Src/GMG12864_lib.c **** 					} else {
 664:Core/Src/GMG12864_lib.c **** 						GMG12864_Draw_pixel(x, y + i, 1); //–ó–∞–∫—Ä–∞—Å–∏—Ç—å –ø–∏–∫—Å–µ–ª—å
 1181              		.loc 1 664 7
 1182 00d2 FB7B     		ldrb	r3, [r7, #15]	@ zero_extendqisi2
 1183 00d4 18B2     		sxth	r0, r3
 1184              		.loc 1 664 32
 1185 00d6 BB79     		ldrb	r3, [r7, #6]	@ zero_extendqisi2
 1186 00d8 9AB2     		uxth	r2, r3
 1187 00da 7B7B     		ldrb	r3, [r7, #13]	@ zero_extendqisi2
 1188 00dc 9BB2     		uxth	r3, r3
 1189 00de 1344     		add	r3, r3, r2
 1190 00e0 9BB2     		uxth	r3, r3
 1191              		.loc 1 664 7
 1192 00e2 1BB2     		sxth	r3, r3
 1193 00e4 0122     		movs	r2, #1
 1194 00e6 1946     		mov	r1, r3
 1195 00e8 FFF7FEFF 		bl	GMG12864_Draw_pixel
 1196 00ec 1DE0     		b	.L57
 1197              	.L55:
 665:Core/Src/GMG12864_lib.c **** 					}
 666:Core/Src/GMG12864_lib.c **** 				} else {
 667:Core/Src/GMG12864_lib.c **** 					if (inversion) {
 1198              		.loc 1 667 9
 1199 00ee FB78     		ldrb	r3, [r7, #3]	@ zero_extendqisi2
 1200 00f0 002B     		cmp	r3, #0
 1201 00f2 0DD0     		beq	.L58
 668:Core/Src/GMG12864_lib.c **** 						GMG12864_Draw_pixel(x, y + i, 1); //–û—á–∏—Å—Ç–∏—Ç—å –ø–∏–∫—Å–µ–ª—å
 1202              		.loc 1 668 7
 1203 00f4 FB7B     		ldrb	r3, [r7, #15]	@ zero_extendqisi2
 1204 00f6 18B2     		sxth	r0, r3
 1205              		.loc 1 668 32
 1206 00f8 BB79     		ldrb	r3, [r7, #6]	@ zero_extendqisi2
 1207 00fa 9AB2     		uxth	r2, r3
 1208 00fc 7B7B     		ldrb	r3, [r7, #13]	@ zero_extendqisi2
 1209 00fe 9BB2     		uxth	r3, r3
 1210 0100 1344     		add	r3, r3, r2
 1211 0102 9BB2     		uxth	r3, r3
 1212              		.loc 1 668 7
 1213 0104 1BB2     		sxth	r3, r3
ARM GAS  C:\Users\SOLDER~1\AppData\Local\Temp\ccg2RcbO.s 			page 40


 1214 0106 0122     		movs	r2, #1
 1215 0108 1946     		mov	r1, r3
 1216 010a FFF7FEFF 		bl	GMG12864_Draw_pixel
 1217 010e 0CE0     		b	.L57
 1218              	.L58:
 669:Core/Src/GMG12864_lib.c **** 					} else {
 670:Core/Src/GMG12864_lib.c **** 						GMG12864_Draw_pixel(x, y + i, 0); //–û—á–∏—Å—Ç–∏—Ç—å –ø–∏–∫—Å–µ–ª—å
 1219              		.loc 1 670 7
 1220 0110 FB7B     		ldrb	r3, [r7, #15]	@ zero_extendqisi2
 1221 0112 18B2     		sxth	r0, r3
 1222              		.loc 1 670 32
 1223 0114 BB79     		ldrb	r3, [r7, #6]	@ zero_extendqisi2
 1224 0116 9AB2     		uxth	r2, r3
 1225 0118 7B7B     		ldrb	r3, [r7, #13]	@ zero_extendqisi2
 1226 011a 9BB2     		uxth	r3, r3
 1227 011c 1344     		add	r3, r3, r2
 1228 011e 9BB2     		uxth	r3, r3
 1229              		.loc 1 670 7
 1230 0120 1BB2     		sxth	r3, r3
 1231 0122 0022     		movs	r2, #0
 1232 0124 1946     		mov	r1, r3
 1233 0126 FFF7FEFF 		bl	GMG12864_Draw_pixel
 1234              	.L57:
 659:Core/Src/GMG12864_lib.c **** 				if (Font_5x7[(symbol * 5) + x - x_start] & (1 << i)) {
 1235              		.loc 1 659 33 discriminator 2
 1236 012a 7B7B     		ldrb	r3, [r7, #13]	@ zero_extendqisi2
 1237 012c 0133     		adds	r3, r3, #1
 1238 012e 7B73     		strb	r3, [r7, #13]
 1239              	.L54:
 659:Core/Src/GMG12864_lib.c **** 				if (Font_5x7[(symbol * 5) + x - x_start] & (1 << i)) {
 1240              		.loc 1 659 4 discriminator 1
 1241 0130 7B7B     		ldrb	r3, [r7, #13]	@ zero_extendqisi2
 1242 0132 062B     		cmp	r3, #6
 1243 0134 AAD9     		bls	.L59
 1244              	.L53:
 1245              	.LBE11:
 641:Core/Src/GMG12864_lib.c **** 		if (x == x_stop) { //–ó–∞–ø–æ–ª–Ω—è–µ–º –º–µ–∂—Å–∏–º–≤–æ–ª—å–Ω—ã–µ –∏–Ω—Ç–µ—Ä–≤–∞–ª—ã
 1246              		.loc 1 641 42 discriminator 2
 1247 0136 FB7B     		ldrb	r3, [r7, #15]	@ zero_extendqisi2
 1248 0138 0133     		adds	r3, r3, #1
 1249 013a FB73     		strb	r3, [r7, #15]
 1250              	.L47:
 641:Core/Src/GMG12864_lib.c **** 		if (x == x_stop) { //–ó–∞–ø–æ–ª–Ω—è–µ–º –º–µ–∂—Å–∏–º–≤–æ–ª—å–Ω—ã–µ –∏–Ω—Ç–µ—Ä–≤–∞–ª—ã
 1251              		.loc 1 641 2 discriminator 1
 1252 013c FA7B     		ldrb	r2, [r7, #15]	@ zero_extendqisi2
 1253 013e FB7A     		ldrb	r3, [r7, #11]	@ zero_extendqisi2
 1254 0140 9A42     		cmp	r2, r3
 1255 0142 7FF674AF 		bls	.L60
 1256              	.LBE9:
 671:Core/Src/GMG12864_lib.c **** 					}
 672:Core/Src/GMG12864_lib.c **** 				}
 673:Core/Src/GMG12864_lib.c **** 			}
 674:Core/Src/GMG12864_lib.c **** 		}
 675:Core/Src/GMG12864_lib.c **** 	}
 676:Core/Src/GMG12864_lib.c **** }
 1257              		.loc 1 676 1
 1258 0146 00BF     		nop
ARM GAS  C:\Users\SOLDER~1\AppData\Local\Temp\ccg2RcbO.s 			page 41


 1259 0148 00BF     		nop
 1260 014a 1437     		adds	r7, r7, #20
 1261              		.cfi_def_cfa_offset 12
 1262 014c BD46     		mov	sp, r7
 1263              		.cfi_def_cfa_register 13
 1264              		@ sp needed
 1265 014e 90BD     		pop	{r4, r7, pc}
 1266              	.L62:
 1267              		.align	2
 1268              	.L61:
 1269 0150 00000000 		.word	Font_5x7
 1270              		.cfi_endproc
 1271              	.LFE76:
 1273              		.section	.text.GMG12864_Print_symbol_3x5,"ax",%progbits
 1274              		.align	1
 1275              		.global	GMG12864_Print_symbol_3x5
 1276              		.syntax unified
 1277              		.thumb
 1278              		.thumb_func
 1280              	GMG12864_Print_symbol_3x5:
 1281              	.LFB77:
 677:Core/Src/GMG12864_lib.c **** /*---------------------–§—É–Ω–∫—Ü–∏—è –≤—ã–≤–æ–¥–∞ —Å–∏–º–≤–æ–ª–∞ –Ω–∞ –¥–∏—Å–ø–ª–µ–π--------------
 678:Core/Src/GMG12864_lib.c **** 
 679:Core/Src/GMG12864_lib.c **** /*---------------------–§—É–Ω–∫—Ü–∏—è –≤—ã–≤–æ–¥–∞ —Å–∏–º–≤–æ–ª–∞ –Ω–∞ –¥–∏—Å–ø–ª–µ–π--------------
 680:Core/Src/GMG12864_lib.c **** void GMG12864_Print_symbol_3x5(uint8_t x, uint8_t y, uint16_t symbol, uint8_t inversion) {
 1282              		.loc 1 680 90
 1283              		.cfi_startproc
 1284              		@ args = 0, pretend = 0, frame = 16
 1285              		@ frame_needed = 1, uses_anonymous_args = 0
 1286 0000 90B5     		push	{r4, r7, lr}
 1287              		.cfi_def_cfa_offset 12
 1288              		.cfi_offset 4, -12
 1289              		.cfi_offset 7, -8
 1290              		.cfi_offset 14, -4
 1291 0002 85B0     		sub	sp, sp, #20
 1292              		.cfi_def_cfa_offset 32
 1293 0004 00AF     		add	r7, sp, #0
 1294              		.cfi_def_cfa_register 7
 1295 0006 0446     		mov	r4, r0
 1296 0008 0846     		mov	r0, r1
 1297 000a 1146     		mov	r1, r2
 1298 000c 1A46     		mov	r2, r3
 1299 000e 2346     		mov	r3, r4
 1300 0010 FB71     		strb	r3, [r7, #7]
 1301 0012 0346     		mov	r3, r0
 1302 0014 BB71     		strb	r3, [r7, #6]
 1303 0016 0B46     		mov	r3, r1	@ movhi
 1304 0018 BB80     		strh	r3, [r7, #4]	@ movhi
 1305 001a 1346     		mov	r3, r2
 1306 001c FB70     		strb	r3, [r7, #3]
 681:Core/Src/GMG12864_lib.c **** /// –§—É–Ω–∫—Ü–∏—è –≤—ã–≤–æ–¥–∞ —Å–∏–º–≤–æ–ª–∞ –Ω–∞ –¥–∏—Å–ø–ª–µ–π
 682:Core/Src/GMG12864_lib.c **** 	uint8_t x_start = x; //–Ω–∞—á–∞–ª—å–Ω–æ–µ –ø–æ–ª–æ–∂–µ–Ω–∏–µ –ø–æ x
 1307              		.loc 1 682 10
 1308 001e FB79     		ldrb	r3, [r7, #7]
 1309 0020 3B73     		strb	r3, [r7, #12]
 683:Core/Src/GMG12864_lib.c **** 	uint8_t x_stop = x + 3; //–∫–æ–Ω–µ—á–Ω–æ–µ –ø–æ–ª–æ–∂–µ–Ω–∏–µ –ø–æ x —Å —É—á–µ—Ç–æ–º –º–µ–∂—Å–∏–º–
 1310              		.loc 1 683 10
ARM GAS  C:\Users\SOLDER~1\AppData\Local\Temp\ccg2RcbO.s 			page 42


 1311 0022 FB79     		ldrb	r3, [r7, #7]
 1312 0024 0333     		adds	r3, r3, #3
 1313 0026 FB72     		strb	r3, [r7, #11]
 1314              	.LBB12:
 684:Core/Src/GMG12864_lib.c **** 	for (uint8_t x = x_start; x <= x_stop; x++) {
 1315              		.loc 1 684 15
 1316 0028 3B7B     		ldrb	r3, [r7, #12]
 1317 002a FB73     		strb	r3, [r7, #15]
 1318              		.loc 1 684 2
 1319 002c 86E0     		b	.L64
 1320              	.L77:
 685:Core/Src/GMG12864_lib.c **** 		if (x == x_stop) { //–ó–∞–ø–æ–ª–Ω—è–µ–º –º–µ–∂—Å–∏–º–≤–æ–ª—å–Ω—ã–µ –∏–Ω—Ç–µ—Ä–≤–∞–ª—ã
 1321              		.loc 1 685 6
 1322 002e FA7B     		ldrb	r2, [r7, #15]	@ zero_extendqisi2
 1323 0030 FB7A     		ldrb	r3, [r7, #11]	@ zero_extendqisi2
 1324 0032 9A42     		cmp	r2, r3
 1325 0034 27D1     		bne	.L65
 1326              	.LBB13:
 686:Core/Src/GMG12864_lib.c **** 			for (uint8_t i = 0; i <= 4; i++) { // –æ—Ç 0 –¥–æ 6, —Ç.–∫. —à—Ä–∏—Ñ—Ç –≤—ã—Å–æ—Ç–æ–π 7 –ø–∏–∫—Å
 1327              		.loc 1 686 17
 1328 0036 0023     		movs	r3, #0
 1329 0038 BB73     		strb	r3, [r7, #14]
 1330              		.loc 1 686 4
 1331 003a 20E0     		b	.L66
 1332              	.L69:
 687:Core/Src/GMG12864_lib.c **** 				if (0x00 & (1 << i)) {
 688:Core/Src/GMG12864_lib.c **** 					if (inversion) {
 689:Core/Src/GMG12864_lib.c **** 						GMG12864_Draw_pixel(x, y + i, 0); //–ó–∞–∫—Ä–∞—Å–∏—Ç—å –ø–∏–∫—Å–µ–ª—å
 690:Core/Src/GMG12864_lib.c **** 					} else {
 691:Core/Src/GMG12864_lib.c **** 						GMG12864_Draw_pixel(x, y + i, 1); //–ó–∞–∫—Ä–∞—Å–∏—Ç—å –ø–∏–∫—Å–µ–ª—å
 692:Core/Src/GMG12864_lib.c **** 					}
 693:Core/Src/GMG12864_lib.c **** 				} else {
 694:Core/Src/GMG12864_lib.c **** 					if (inversion) {
 1333              		.loc 1 694 9
 1334 003c FB78     		ldrb	r3, [r7, #3]	@ zero_extendqisi2
 1335 003e 002B     		cmp	r3, #0
 1336 0040 0DD0     		beq	.L67
 695:Core/Src/GMG12864_lib.c **** 						GMG12864_Draw_pixel(x, y + i, 1); //–û—á–∏—Å—Ç–∏—Ç—å –ø–∏–∫—Å–µ–ª—å
 1337              		.loc 1 695 7
 1338 0042 FB7B     		ldrb	r3, [r7, #15]	@ zero_extendqisi2
 1339 0044 18B2     		sxth	r0, r3
 1340              		.loc 1 695 32
 1341 0046 BB79     		ldrb	r3, [r7, #6]	@ zero_extendqisi2
 1342 0048 9AB2     		uxth	r2, r3
 1343 004a BB7B     		ldrb	r3, [r7, #14]	@ zero_extendqisi2
 1344 004c 9BB2     		uxth	r3, r3
 1345 004e 1344     		add	r3, r3, r2
 1346 0050 9BB2     		uxth	r3, r3
 1347              		.loc 1 695 7
 1348 0052 1BB2     		sxth	r3, r3
 1349 0054 0122     		movs	r2, #1
 1350 0056 1946     		mov	r1, r3
 1351 0058 FFF7FEFF 		bl	GMG12864_Draw_pixel
 1352 005c 0CE0     		b	.L68
 1353              	.L67:
 696:Core/Src/GMG12864_lib.c **** 					} else {
 697:Core/Src/GMG12864_lib.c **** 						GMG12864_Draw_pixel(x, y + i, 0); //–û—á–∏—Å—Ç–∏—Ç—å –ø–∏–∫—Å–µ–ª—å
ARM GAS  C:\Users\SOLDER~1\AppData\Local\Temp\ccg2RcbO.s 			page 43


 1354              		.loc 1 697 7
 1355 005e FB7B     		ldrb	r3, [r7, #15]	@ zero_extendqisi2
 1356 0060 18B2     		sxth	r0, r3
 1357              		.loc 1 697 32
 1358 0062 BB79     		ldrb	r3, [r7, #6]	@ zero_extendqisi2
 1359 0064 9AB2     		uxth	r2, r3
 1360 0066 BB7B     		ldrb	r3, [r7, #14]	@ zero_extendqisi2
 1361 0068 9BB2     		uxth	r3, r3
 1362 006a 1344     		add	r3, r3, r2
 1363 006c 9BB2     		uxth	r3, r3
 1364              		.loc 1 697 7
 1365 006e 1BB2     		sxth	r3, r3
 1366 0070 0022     		movs	r2, #0
 1367 0072 1946     		mov	r1, r3
 1368 0074 FFF7FEFF 		bl	GMG12864_Draw_pixel
 1369              	.L68:
 686:Core/Src/GMG12864_lib.c **** 				if (0x00 & (1 << i)) {
 1370              		.loc 1 686 33 discriminator 2
 1371 0078 BB7B     		ldrb	r3, [r7, #14]	@ zero_extendqisi2
 1372 007a 0133     		adds	r3, r3, #1
 1373 007c BB73     		strb	r3, [r7, #14]
 1374              	.L66:
 686:Core/Src/GMG12864_lib.c **** 				if (0x00 & (1 << i)) {
 1375              		.loc 1 686 4 discriminator 1
 1376 007e BB7B     		ldrb	r3, [r7, #14]	@ zero_extendqisi2
 1377 0080 042B     		cmp	r3, #4
 1378 0082 DBD9     		bls	.L69
 1379 0084 57E0     		b	.L70
 1380              	.L65:
 1381              	.LBE13:
 1382              	.LBB14:
 698:Core/Src/GMG12864_lib.c **** 					}
 699:Core/Src/GMG12864_lib.c **** 				}
 700:Core/Src/GMG12864_lib.c **** 			}
 701:Core/Src/GMG12864_lib.c **** 		} else { //–ó–∞–ø–æ–ª–Ω—è–µ–º –ø–æ–ª–µ–∑–Ω–æ–π –∏–Ω—Ñ–æ—Ä–º–∞—Ü–∏–µ–π
 702:Core/Src/GMG12864_lib.c **** 			for (uint8_t i = 0; i <= 4; i++) { // –æ—Ç 0 –¥–æ 6, —Ç.–∫. —à—Ä–∏—Ñ—Ç –≤—ã—Å–æ—Ç–æ–π 7 –ø–∏–∫—Å
 1383              		.loc 1 702 17
 1384 0086 0023     		movs	r3, #0
 1385 0088 7B73     		strb	r3, [r7, #13]
 1386              		.loc 1 702 4
 1387 008a 51E0     		b	.L71
 1388              	.L76:
 703:Core/Src/GMG12864_lib.c **** 				if (Font_3x5[(symbol * 3) + x - x_start] & (1 << i)) {
 1389              		.loc 1 703 26
 1390 008c BA88     		ldrh	r2, [r7, #4]
 1391 008e 1346     		mov	r3, r2
 1392 0090 5B00     		lsls	r3, r3, #1
 1393 0092 1A44     		add	r2, r2, r3
 1394              		.loc 1 703 31
 1395 0094 FB7B     		ldrb	r3, [r7, #15]	@ zero_extendqisi2
 1396 0096 1A44     		add	r2, r2, r3
 1397              		.loc 1 703 35
 1398 0098 3B7B     		ldrb	r3, [r7, #12]	@ zero_extendqisi2
 1399 009a D31A     		subs	r3, r2, r3
 1400              		.loc 1 703 17
 1401 009c 2C4A     		ldr	r2, .L78
 1402 009e D35C     		ldrb	r3, [r2, r3]	@ zero_extendqisi2
ARM GAS  C:\Users\SOLDER~1\AppData\Local\Temp\ccg2RcbO.s 			page 44


 1403 00a0 1A46     		mov	r2, r3
 1404              		.loc 1 703 9
 1405 00a2 7B7B     		ldrb	r3, [r7, #13]	@ zero_extendqisi2
 1406 00a4 42FA03F3 		asr	r3, r2, r3
 1407 00a8 03F00103 		and	r3, r3, #1
 1408              		.loc 1 703 8
 1409 00ac 002B     		cmp	r3, #0
 1410 00ae 1ED0     		beq	.L72
 704:Core/Src/GMG12864_lib.c **** 					if (inversion) {
 1411              		.loc 1 704 9
 1412 00b0 FB78     		ldrb	r3, [r7, #3]	@ zero_extendqisi2
 1413 00b2 002B     		cmp	r3, #0
 1414 00b4 0DD0     		beq	.L73
 705:Core/Src/GMG12864_lib.c **** 						GMG12864_Draw_pixel(x, y + i, 0); //–ó–∞–∫—Ä–∞—Å–∏—Ç—å –ø–∏–∫—Å–µ–ª—å
 1415              		.loc 1 705 7
 1416 00b6 FB7B     		ldrb	r3, [r7, #15]	@ zero_extendqisi2
 1417 00b8 18B2     		sxth	r0, r3
 1418              		.loc 1 705 32
 1419 00ba BB79     		ldrb	r3, [r7, #6]	@ zero_extendqisi2
 1420 00bc 9AB2     		uxth	r2, r3
 1421 00be 7B7B     		ldrb	r3, [r7, #13]	@ zero_extendqisi2
 1422 00c0 9BB2     		uxth	r3, r3
 1423 00c2 1344     		add	r3, r3, r2
 1424 00c4 9BB2     		uxth	r3, r3
 1425              		.loc 1 705 7
 1426 00c6 1BB2     		sxth	r3, r3
 1427 00c8 0022     		movs	r2, #0
 1428 00ca 1946     		mov	r1, r3
 1429 00cc FFF7FEFF 		bl	GMG12864_Draw_pixel
 1430 00d0 2BE0     		b	.L74
 1431              	.L73:
 706:Core/Src/GMG12864_lib.c **** 					} else {
 707:Core/Src/GMG12864_lib.c **** 						GMG12864_Draw_pixel(x, y + i, 1); //–ó–∞–∫—Ä–∞—Å–∏—Ç—å –ø–∏–∫—Å–µ–ª—å
 1432              		.loc 1 707 7
 1433 00d2 FB7B     		ldrb	r3, [r7, #15]	@ zero_extendqisi2
 1434 00d4 18B2     		sxth	r0, r3
 1435              		.loc 1 707 32
 1436 00d6 BB79     		ldrb	r3, [r7, #6]	@ zero_extendqisi2
 1437 00d8 9AB2     		uxth	r2, r3
 1438 00da 7B7B     		ldrb	r3, [r7, #13]	@ zero_extendqisi2
 1439 00dc 9BB2     		uxth	r3, r3
 1440 00de 1344     		add	r3, r3, r2
 1441 00e0 9BB2     		uxth	r3, r3
 1442              		.loc 1 707 7
 1443 00e2 1BB2     		sxth	r3, r3
 1444 00e4 0122     		movs	r2, #1
 1445 00e6 1946     		mov	r1, r3
 1446 00e8 FFF7FEFF 		bl	GMG12864_Draw_pixel
 1447 00ec 1DE0     		b	.L74
 1448              	.L72:
 708:Core/Src/GMG12864_lib.c **** 					}
 709:Core/Src/GMG12864_lib.c **** 				} else {
 710:Core/Src/GMG12864_lib.c **** 					if (inversion) {
 1449              		.loc 1 710 9
 1450 00ee FB78     		ldrb	r3, [r7, #3]	@ zero_extendqisi2
 1451 00f0 002B     		cmp	r3, #0
 1452 00f2 0DD0     		beq	.L75
ARM GAS  C:\Users\SOLDER~1\AppData\Local\Temp\ccg2RcbO.s 			page 45


 711:Core/Src/GMG12864_lib.c **** 						GMG12864_Draw_pixel(x, y + i, 1); //–û—á–∏—Å—Ç–∏—Ç—å –ø–∏–∫—Å–µ–ª—å
 1453              		.loc 1 711 7
 1454 00f4 FB7B     		ldrb	r3, [r7, #15]	@ zero_extendqisi2
 1455 00f6 18B2     		sxth	r0, r3
 1456              		.loc 1 711 32
 1457 00f8 BB79     		ldrb	r3, [r7, #6]	@ zero_extendqisi2
 1458 00fa 9AB2     		uxth	r2, r3
 1459 00fc 7B7B     		ldrb	r3, [r7, #13]	@ zero_extendqisi2
 1460 00fe 9BB2     		uxth	r3, r3
 1461 0100 1344     		add	r3, r3, r2
 1462 0102 9BB2     		uxth	r3, r3
 1463              		.loc 1 711 7
 1464 0104 1BB2     		sxth	r3, r3
 1465 0106 0122     		movs	r2, #1
 1466 0108 1946     		mov	r1, r3
 1467 010a FFF7FEFF 		bl	GMG12864_Draw_pixel
 1468 010e 0CE0     		b	.L74
 1469              	.L75:
 712:Core/Src/GMG12864_lib.c **** 					} else {
 713:Core/Src/GMG12864_lib.c **** 						GMG12864_Draw_pixel(x, y + i, 0); //–û—á–∏—Å—Ç–∏—Ç—å –ø–∏–∫—Å–µ–ª—å
 1470              		.loc 1 713 7
 1471 0110 FB7B     		ldrb	r3, [r7, #15]	@ zero_extendqisi2
 1472 0112 18B2     		sxth	r0, r3
 1473              		.loc 1 713 32
 1474 0114 BB79     		ldrb	r3, [r7, #6]	@ zero_extendqisi2
 1475 0116 9AB2     		uxth	r2, r3
 1476 0118 7B7B     		ldrb	r3, [r7, #13]	@ zero_extendqisi2
 1477 011a 9BB2     		uxth	r3, r3
 1478 011c 1344     		add	r3, r3, r2
 1479 011e 9BB2     		uxth	r3, r3
 1480              		.loc 1 713 7
 1481 0120 1BB2     		sxth	r3, r3
 1482 0122 0022     		movs	r2, #0
 1483 0124 1946     		mov	r1, r3
 1484 0126 FFF7FEFF 		bl	GMG12864_Draw_pixel
 1485              	.L74:
 702:Core/Src/GMG12864_lib.c **** 				if (Font_3x5[(symbol * 3) + x - x_start] & (1 << i)) {
 1486              		.loc 1 702 33 discriminator 2
 1487 012a 7B7B     		ldrb	r3, [r7, #13]	@ zero_extendqisi2
 1488 012c 0133     		adds	r3, r3, #1
 1489 012e 7B73     		strb	r3, [r7, #13]
 1490              	.L71:
 702:Core/Src/GMG12864_lib.c **** 				if (Font_3x5[(symbol * 3) + x - x_start] & (1 << i)) {
 1491              		.loc 1 702 4 discriminator 1
 1492 0130 7B7B     		ldrb	r3, [r7, #13]	@ zero_extendqisi2
 1493 0132 042B     		cmp	r3, #4
 1494 0134 AAD9     		bls	.L76
 1495              	.L70:
 1496              	.LBE14:
 684:Core/Src/GMG12864_lib.c **** 		if (x == x_stop) { //–ó–∞–ø–æ–ª–Ω—è–µ–º –º–µ–∂—Å–∏–º–≤–æ–ª—å–Ω—ã–µ –∏–Ω—Ç–µ—Ä–≤–∞–ª—ã
 1497              		.loc 1 684 42 discriminator 2
 1498 0136 FB7B     		ldrb	r3, [r7, #15]	@ zero_extendqisi2
 1499 0138 0133     		adds	r3, r3, #1
 1500 013a FB73     		strb	r3, [r7, #15]
 1501              	.L64:
 684:Core/Src/GMG12864_lib.c **** 		if (x == x_stop) { //–ó–∞–ø–æ–ª–Ω—è–µ–º –º–µ–∂—Å–∏–º–≤–æ–ª—å–Ω—ã–µ –∏–Ω—Ç–µ—Ä–≤–∞–ª—ã
 1502              		.loc 1 684 2 discriminator 1
ARM GAS  C:\Users\SOLDER~1\AppData\Local\Temp\ccg2RcbO.s 			page 46


 1503 013c FA7B     		ldrb	r2, [r7, #15]	@ zero_extendqisi2
 1504 013e FB7A     		ldrb	r3, [r7, #11]	@ zero_extendqisi2
 1505 0140 9A42     		cmp	r2, r3
 1506 0142 7FF674AF 		bls	.L77
 1507              	.LBE12:
 714:Core/Src/GMG12864_lib.c **** 					}
 715:Core/Src/GMG12864_lib.c **** 				}
 716:Core/Src/GMG12864_lib.c **** 			}
 717:Core/Src/GMG12864_lib.c **** 		}
 718:Core/Src/GMG12864_lib.c **** 	}
 719:Core/Src/GMG12864_lib.c **** }
 1508              		.loc 1 719 1
 1509 0146 00BF     		nop
 1510 0148 00BF     		nop
 1511 014a 1437     		adds	r7, r7, #20
 1512              		.cfi_def_cfa_offset 12
 1513 014c BD46     		mov	sp, r7
 1514              		.cfi_def_cfa_register 13
 1515              		@ sp needed
 1516 014e 90BD     		pop	{r4, r7, pc}
 1517              	.L79:
 1518              		.align	2
 1519              	.L78:
 1520 0150 00000000 		.word	Font_3x5
 1521              		.cfi_endproc
 1522              	.LFE77:
 1524              		.section	.text.GMG12864_Decode_UTF8,"ax",%progbits
 1525              		.align	1
 1526              		.global	GMG12864_Decode_UTF8
 1527              		.syntax unified
 1528              		.thumb
 1529              		.thumb_func
 1531              	GMG12864_Decode_UTF8:
 1532              	.LFB78:
 720:Core/Src/GMG12864_lib.c **** /*---------------------–§—É–Ω–∫—Ü–∏—è –≤—ã–≤–æ–¥–∞ —Å–∏–º–≤–æ–ª–∞ –Ω–∞ –¥–∏—Å–ø–ª–µ–π--------------
 721:Core/Src/GMG12864_lib.c **** 
 722:Core/Src/GMG12864_lib.c **** /*----------------–§—É–Ω–∫—Ü–∏—è –¥–µ–∫–æ–¥–∏—Ä–æ–≤–∞–Ω–∏—è UTF-8 –≤ –Ω–∞–±–æ—Ä —Å–∏–º–≤–æ–ª–æ–≤---
 723:Core/Src/GMG12864_lib.c **** void GMG12864_Decode_UTF8(uint8_t x, uint8_t y, uint8_t font, bool inversion, char *tx_buffer) {
 1533              		.loc 1 723 96
 1534              		.cfi_startproc
 1535              		@ args = 4, pretend = 0, frame = 24
 1536              		@ frame_needed = 1, uses_anonymous_args = 0
 1537 0000 90B5     		push	{r4, r7, lr}
 1538              		.cfi_def_cfa_offset 12
 1539              		.cfi_offset 4, -12
 1540              		.cfi_offset 7, -8
 1541              		.cfi_offset 14, -4
 1542 0002 87B0     		sub	sp, sp, #28
 1543              		.cfi_def_cfa_offset 40
 1544 0004 00AF     		add	r7, sp, #0
 1545              		.cfi_def_cfa_register 7
 1546 0006 0446     		mov	r4, r0
 1547 0008 0846     		mov	r0, r1
 1548 000a 1146     		mov	r1, r2
 1549 000c 1A46     		mov	r2, r3
 1550 000e 2346     		mov	r3, r4
 1551 0010 FB71     		strb	r3, [r7, #7]
ARM GAS  C:\Users\SOLDER~1\AppData\Local\Temp\ccg2RcbO.s 			page 47


 1552 0012 0346     		mov	r3, r0
 1553 0014 BB71     		strb	r3, [r7, #6]
 1554 0016 0B46     		mov	r3, r1
 1555 0018 7B71     		strb	r3, [r7, #5]
 1556 001a 1346     		mov	r3, r2
 1557 001c 3B71     		strb	r3, [r7, #4]
 724:Core/Src/GMG12864_lib.c **** /// –§—É–Ω–∫—Ü–∏—è –¥–µ–∫–æ–¥–∏—Ä–æ–≤–∞–Ω–∏—è UTF-8 –≤ –Ω–∞–±–æ—Ä —Å–∏–º–≤–æ–ª–æ–≤ –∏ –ø–æ—Å–ª–µ–¥—
 725:Core/Src/GMG12864_lib.c **** /// \param x - –∫–æ–æ—Ä–¥–∏–Ω–∞—Ç–∞ –ø–æ —Ö. –û—Ç 0 –¥–æ 127
 726:Core/Src/GMG12864_lib.c **** /// \param y - –∫–æ–æ—Ä–¥–∏–Ω–∞—Ç–∞ –ø–æ y. –æ—Ç 0 –¥–æ 7
 727:Core/Src/GMG12864_lib.c **** /// \param font - —à—Ä–∏—Ñ—Ç. 0 - 3x5, 1 - 5x7
 728:Core/Src/GMG12864_lib.c **** 	uint16_t symbol = 0;
 1558              		.loc 1 728 11
 1559 001e 0023     		movs	r3, #0
 1560 0020 FB81     		strh	r3, [r7, #14]	@ movhi
 729:Core/Src/GMG12864_lib.c **** 	bool flag_block = 0;
 1561              		.loc 1 729 7
 1562 0022 0023     		movs	r3, #0
 1563 0024 FB75     		strb	r3, [r7, #23]
 1564              	.LBB15:
 730:Core/Src/GMG12864_lib.c **** 	for (int i = 0; i < strlen(tx_buffer); i++) {
 1565              		.loc 1 730 11
 1566 0026 0023     		movs	r3, #0
 1567 0028 3B61     		str	r3, [r7, #16]
 1568              		.loc 1 730 2
 1569 002a 7EE1     		b	.L81
 1570              	.L121:
 731:Core/Src/GMG12864_lib.c **** 		if (tx_buffer[i] < 0xC0) { //–ê–Ω–≥–ª–∏–π—Å–∫–∏–π —Ç–µ–∫—Å—Ç –∏ —Å–∏–º–≤–æ–ª—ã. –ï—Å–ª–∏ –¥–æ —Ä—
 1571              		.loc 1 731 16
 1572 002c 3B69     		ldr	r3, [r7, #16]
 1573 002e BA6A     		ldr	r2, [r7, #40]
 1574 0030 1344     		add	r3, r3, r2
 1575 0032 1B78     		ldrb	r3, [r3]	@ zero_extendqisi2
 1576              		.loc 1 731 6
 1577 0034 BF2B     		cmp	r3, #191
 1578 0036 41D8     		bhi	.L82
 732:Core/Src/GMG12864_lib.c **** 			if (flag_block) {
 1579              		.loc 1 732 7
 1580 0038 FB7D     		ldrb	r3, [r7, #23]	@ zero_extendqisi2
 1581 003a 002B     		cmp	r3, #0
 1582 003c 02D0     		beq	.L83
 733:Core/Src/GMG12864_lib.c **** 				flag_block = 0;
 1583              		.loc 1 733 16
 1584 003e 0023     		movs	r3, #0
 1585 0040 FB75     		strb	r3, [r7, #23]
 1586 0042 6FE1     		b	.L84
 1587              	.L83:
 734:Core/Src/GMG12864_lib.c **** 			} else {
 735:Core/Src/GMG12864_lib.c **** 				symbol = tx_buffer[i];
 1588              		.loc 1 735 23
 1589 0044 3B69     		ldr	r3, [r7, #16]
 1590 0046 BA6A     		ldr	r2, [r7, #40]
 1591 0048 1344     		add	r3, r3, r2
 1592 004a 1B78     		ldrb	r3, [r3]	@ zero_extendqisi2
 1593              		.loc 1 735 12
 1594 004c FB81     		strh	r3, [r7, #14]	@ movhi
 736:Core/Src/GMG12864_lib.c **** 				if (font == FONT_3X5) { //–ï—Å–ª–∏ –≤—ã–±—Ä–∞–Ω —à—Ä–∏—Ñ—Ç —Ä–∞–∑–º–µ—Ä–∞ 3x5
 1595              		.loc 1 736 8
ARM GAS  C:\Users\SOLDER~1\AppData\Local\Temp\ccg2RcbO.s 			page 48


 1596 004e 7B79     		ldrb	r3, [r7, #5]	@ zero_extendqisi2
 1597 0050 002B     		cmp	r3, #0
 1598 0052 17D1     		bne	.L85
 737:Core/Src/GMG12864_lib.c **** 					if (inversion) {
 1599              		.loc 1 737 9
 1600 0054 3B79     		ldrb	r3, [r7, #4]	@ zero_extendqisi2
 1601 0056 002B     		cmp	r3, #0
 1602 0058 08D0     		beq	.L86
 738:Core/Src/GMG12864_lib.c **** 						GMG12864_Print_symbol_3x5(x, y, symbol - 32, 1); //–¢–∞–±–ª–∏—Ü–∞ UTF-8. Basic Latin. –° "–ø—
 1603              		.loc 1 738 7
 1604 005a FB89     		ldrh	r3, [r7, #14]	@ movhi
 1605 005c 203B     		subs	r3, r3, #32
 1606 005e 9AB2     		uxth	r2, r3
 1607 0060 B979     		ldrb	r1, [r7, #6]	@ zero_extendqisi2
 1608 0062 F879     		ldrb	r0, [r7, #7]	@ zero_extendqisi2
 1609 0064 0123     		movs	r3, #1
 1610 0066 FFF7FEFF 		bl	GMG12864_Print_symbol_3x5
 1611 006a 07E0     		b	.L87
 1612              	.L86:
 739:Core/Src/GMG12864_lib.c **** 					} else {
 740:Core/Src/GMG12864_lib.c **** 						GMG12864_Print_symbol_3x5(x, y, symbol - 32, 0); //–¢–∞–±–ª–∏—Ü–∞ UTF-8. Basic Latin. –° "–ø—
 1613              		.loc 1 740 7
 1614 006c FB89     		ldrh	r3, [r7, #14]	@ movhi
 1615 006e 203B     		subs	r3, r3, #32
 1616 0070 9AB2     		uxth	r2, r3
 1617 0072 B979     		ldrb	r1, [r7, #6]	@ zero_extendqisi2
 1618 0074 F879     		ldrb	r0, [r7, #7]	@ zero_extendqisi2
 1619 0076 0023     		movs	r3, #0
 1620 0078 FFF7FEFF 		bl	GMG12864_Print_symbol_3x5
 1621              	.L87:
 741:Core/Src/GMG12864_lib.c **** 					}
 742:Core/Src/GMG12864_lib.c **** 					x = x + 4;
 1622              		.loc 1 742 8
 1623 007c FB79     		ldrb	r3, [r7, #7]
 1624 007e 0433     		adds	r3, r3, #4
 1625 0080 FB71     		strb	r3, [r7, #7]
 1626 0082 4FE1     		b	.L84
 1627              	.L85:
 743:Core/Src/GMG12864_lib.c **** 				} else if (font == FONT_5X7) { //–ï—Å–ª–∏ –≤—ã–±—Ä–∞–Ω —à—Ä–∏—Ñ—Ç —Ä–∞–∑–º–µ—Ä–∞ 5x7
 1628              		.loc 1 743 15
 1629 0084 7B79     		ldrb	r3, [r7, #5]	@ zero_extendqisi2
 1630 0086 012B     		cmp	r3, #1
 1631 0088 40F04C81 		bne	.L84
 744:Core/Src/GMG12864_lib.c **** 					if (inversion) {
 1632              		.loc 1 744 9
 1633 008c 3B79     		ldrb	r3, [r7, #4]	@ zero_extendqisi2
 1634 008e 002B     		cmp	r3, #0
 1635 0090 08D0     		beq	.L88
 745:Core/Src/GMG12864_lib.c **** 						GMG12864_Print_symbol_5x7(x, y, symbol - 32, 1); //–¢–∞–±–ª–∏—Ü–∞ UTF-8. Basic Latin. –° "–ø—
 1636              		.loc 1 745 7
 1637 0092 FB89     		ldrh	r3, [r7, #14]	@ movhi
 1638 0094 203B     		subs	r3, r3, #32
 1639 0096 9AB2     		uxth	r2, r3
 1640 0098 B979     		ldrb	r1, [r7, #6]	@ zero_extendqisi2
 1641 009a F879     		ldrb	r0, [r7, #7]	@ zero_extendqisi2
 1642 009c 0123     		movs	r3, #1
 1643 009e FFF7FEFF 		bl	GMG12864_Print_symbol_5x7
ARM GAS  C:\Users\SOLDER~1\AppData\Local\Temp\ccg2RcbO.s 			page 49


 1644 00a2 07E0     		b	.L89
 1645              	.L88:
 746:Core/Src/GMG12864_lib.c **** 					} else {
 747:Core/Src/GMG12864_lib.c **** 						GMG12864_Print_symbol_5x7(x, y, symbol - 32, 0); //–¢–∞–±–ª–∏—Ü–∞ UTF-8. Basic Latin. –° "–ø—
 1646              		.loc 1 747 7
 1647 00a4 FB89     		ldrh	r3, [r7, #14]	@ movhi
 1648 00a6 203B     		subs	r3, r3, #32
 1649 00a8 9AB2     		uxth	r2, r3
 1650 00aa B979     		ldrb	r1, [r7, #6]	@ zero_extendqisi2
 1651 00ac F879     		ldrb	r0, [r7, #7]	@ zero_extendqisi2
 1652 00ae 0023     		movs	r3, #0
 1653 00b0 FFF7FEFF 		bl	GMG12864_Print_symbol_5x7
 1654              	.L89:
 748:Core/Src/GMG12864_lib.c **** 					}
 749:Core/Src/GMG12864_lib.c **** 					x = x + 6;
 1655              		.loc 1 749 8
 1656 00b4 FB79     		ldrb	r3, [r7, #7]
 1657 00b6 0633     		adds	r3, r3, #6
 1658 00b8 FB71     		strb	r3, [r7, #7]
 1659 00ba 33E1     		b	.L84
 1660              	.L82:
 750:Core/Src/GMG12864_lib.c **** 				}
 751:Core/Src/GMG12864_lib.c **** 			}
 752:Core/Src/GMG12864_lib.c **** 		}
 753:Core/Src/GMG12864_lib.c **** 
 754:Core/Src/GMG12864_lib.c **** 		else { //–†—É—Å—Å–∫–∏–π —Ç–µ–∫—Å—Ç
 755:Core/Src/GMG12864_lib.c **** 			symbol = tx_buffer[i] << 8 | tx_buffer[i + 1];
 1661              		.loc 1 755 22
 1662 00bc 3B69     		ldr	r3, [r7, #16]
 1663 00be BA6A     		ldr	r2, [r7, #40]
 1664 00c0 1344     		add	r3, r3, r2
 1665 00c2 1B78     		ldrb	r3, [r3]	@ zero_extendqisi2
 1666              		.loc 1 755 26
 1667 00c4 1B02     		lsls	r3, r3, #8
 1668              		.loc 1 755 31
 1669 00c6 1AB2     		sxth	r2, r3
 1670              		.loc 1 755 42
 1671 00c8 3B69     		ldr	r3, [r7, #16]
 1672 00ca 0133     		adds	r3, r3, #1
 1673 00cc B96A     		ldr	r1, [r7, #40]
 1674 00ce 0B44     		add	r3, r3, r1
 1675 00d0 1B78     		ldrb	r3, [r3]	@ zero_extendqisi2
 1676 00d2 1BB2     		sxth	r3, r3
 1677              		.loc 1 755 31
 1678 00d4 1343     		orrs	r3, r3, r2
 1679 00d6 1BB2     		sxth	r3, r3
 1680              		.loc 1 755 11
 1681 00d8 FB81     		strh	r3, [r7, #14]	@ movhi
 756:Core/Src/GMG12864_lib.c **** 			if (symbol < 0xD180 && symbol > 0xD081) {
 1682              		.loc 1 756 7
 1683 00da FB89     		ldrh	r3, [r7, #14]
 1684 00dc 4DF27F12 		movw	r2, #53631
 1685 00e0 9342     		cmp	r3, r2
 1686 00e2 43D8     		bhi	.L90
 1687              		.loc 1 756 24 discriminator 1
 1688 00e4 FB89     		ldrh	r3, [r7, #14]
 1689 00e6 4DF28102 		movw	r2, #53377
ARM GAS  C:\Users\SOLDER~1\AppData\Local\Temp\ccg2RcbO.s 			page 50


 1690 00ea 9342     		cmp	r3, r2
 1691 00ec 3ED9     		bls	.L90
 757:Core/Src/GMG12864_lib.c **** 				if (font == FONT_3X5) { //–ï—Å–ª–∏ –≤—ã–±—Ä–∞–Ω —à—Ä–∏—Ñ—Ç —Ä–∞–∑–º–µ—Ä–∞ 3x5
 1692              		.loc 1 757 8
 1693 00ee 7B79     		ldrb	r3, [r7, #5]	@ zero_extendqisi2
 1694 00f0 002B     		cmp	r3, #0
 1695 00f2 1BD1     		bne	.L91
 758:Core/Src/GMG12864_lib.c **** 					if (inversion) {
 1696              		.loc 1 758 9
 1697 00f4 3B79     		ldrb	r3, [r7, #4]	@ zero_extendqisi2
 1698 00f6 002B     		cmp	r3, #0
 1699 00f8 0AD0     		beq	.L92
 759:Core/Src/GMG12864_lib.c **** 						GMG12864_Print_symbol_3x5(x, y, symbol - 53297, 1); //–¢–∞–±–ª–∏—Ü–∞ UTF-8. –ö–∏—Ä–∏–ª–ª–∏—Ü–
 1700              		.loc 1 759 7
 1701 00fa FB89     		ldrh	r3, [r7, #14]	@ movhi
 1702 00fc 03F53F53 		add	r3, r3, #12224
 1703 0100 0F33     		adds	r3, r3, #15
 1704 0102 9AB2     		uxth	r2, r3
 1705 0104 B979     		ldrb	r1, [r7, #6]	@ zero_extendqisi2
 1706 0106 F879     		ldrb	r0, [r7, #7]	@ zero_extendqisi2
 1707 0108 0123     		movs	r3, #1
 1708 010a FFF7FEFF 		bl	GMG12864_Print_symbol_3x5
 1709 010e 09E0     		b	.L93
 1710              	.L92:
 760:Core/Src/GMG12864_lib.c **** 					} else {
 761:Core/Src/GMG12864_lib.c **** 						GMG12864_Print_symbol_3x5(x, y, symbol - 53297, 0); //–¢–∞–±–ª–∏—Ü–∞ UTF-8. –ö–∏—Ä–∏–ª–ª–∏—Ü–
 1711              		.loc 1 761 7
 1712 0110 FB89     		ldrh	r3, [r7, #14]	@ movhi
 1713 0112 03F53F53 		add	r3, r3, #12224
 1714 0116 0F33     		adds	r3, r3, #15
 1715 0118 9AB2     		uxth	r2, r3
 1716 011a B979     		ldrb	r1, [r7, #6]	@ zero_extendqisi2
 1717 011c F879     		ldrb	r0, [r7, #7]	@ zero_extendqisi2
 1718 011e 0023     		movs	r3, #0
 1719 0120 FFF7FEFF 		bl	GMG12864_Print_symbol_3x5
 1720              	.L93:
 762:Core/Src/GMG12864_lib.c **** 					}
 763:Core/Src/GMG12864_lib.c **** 					x = x + 4;
 1721              		.loc 1 763 8
 1722 0124 FB79     		ldrb	r3, [r7, #7]
 1723 0126 0433     		adds	r3, r3, #4
 1724 0128 FB71     		strb	r3, [r7, #7]
 757:Core/Src/GMG12864_lib.c **** 					if (inversion) {
 1725              		.loc 1 757 8
 1726 012a F8E0     		b	.L122
 1727              	.L91:
 764:Core/Src/GMG12864_lib.c **** 				} else if (font == FONT_5X7) { //–ï—Å–ª–∏ –≤—ã–±—Ä–∞–Ω —à—Ä–∏—Ñ—Ç —Ä–∞–∑–º–µ—Ä–∞ 5x7
 1728              		.loc 1 764 15
 1729 012c 7B79     		ldrb	r3, [r7, #5]	@ zero_extendqisi2
 1730 012e 012B     		cmp	r3, #1
 1731 0130 40F0F580 		bne	.L122
 765:Core/Src/GMG12864_lib.c **** 					if (inversion) {
 1732              		.loc 1 765 9
 1733 0134 3B79     		ldrb	r3, [r7, #4]	@ zero_extendqisi2
 1734 0136 002B     		cmp	r3, #0
 1735 0138 0AD0     		beq	.L95
 766:Core/Src/GMG12864_lib.c **** 						GMG12864_Print_symbol_5x7(x, y, symbol - 53297, 1); //–¢–∞–±–ª–∏—Ü–∞ UTF-8. –ö–∏—Ä–∏–ª–ª–∏—Ü–
ARM GAS  C:\Users\SOLDER~1\AppData\Local\Temp\ccg2RcbO.s 			page 51


 1736              		.loc 1 766 7
 1737 013a FB89     		ldrh	r3, [r7, #14]	@ movhi
 1738 013c 03F53F53 		add	r3, r3, #12224
 1739 0140 0F33     		adds	r3, r3, #15
 1740 0142 9AB2     		uxth	r2, r3
 1741 0144 B979     		ldrb	r1, [r7, #6]	@ zero_extendqisi2
 1742 0146 F879     		ldrb	r0, [r7, #7]	@ zero_extendqisi2
 1743 0148 0123     		movs	r3, #1
 1744 014a FFF7FEFF 		bl	GMG12864_Print_symbol_5x7
 1745 014e 09E0     		b	.L96
 1746              	.L95:
 767:Core/Src/GMG12864_lib.c **** 					} else {
 768:Core/Src/GMG12864_lib.c **** 						GMG12864_Print_symbol_5x7(x, y, symbol - 53297, 0); //–¢–∞–±–ª–∏—Ü–∞ UTF-8. –ö–∏—Ä–∏–ª–ª–∏—Ü–
 1747              		.loc 1 768 7
 1748 0150 FB89     		ldrh	r3, [r7, #14]	@ movhi
 1749 0152 03F53F53 		add	r3, r3, #12224
 1750 0156 0F33     		adds	r3, r3, #15
 1751 0158 9AB2     		uxth	r2, r3
 1752 015a B979     		ldrb	r1, [r7, #6]	@ zero_extendqisi2
 1753 015c F879     		ldrb	r0, [r7, #7]	@ zero_extendqisi2
 1754 015e 0023     		movs	r3, #0
 1755 0160 FFF7FEFF 		bl	GMG12864_Print_symbol_5x7
 1756              	.L96:
 769:Core/Src/GMG12864_lib.c **** 					}
 770:Core/Src/GMG12864_lib.c **** 					x = x + 6;
 1757              		.loc 1 770 8
 1758 0164 FB79     		ldrb	r3, [r7, #7]
 1759 0166 0633     		adds	r3, r3, #6
 1760 0168 FB71     		strb	r3, [r7, #7]
 757:Core/Src/GMG12864_lib.c **** 					if (inversion) {
 1761              		.loc 1 757 8
 1762 016a D8E0     		b	.L122
 1763              	.L90:
 771:Core/Src/GMG12864_lib.c **** 				}
 772:Core/Src/GMG12864_lib.c **** 			} else if (symbol == 0xD081) {
 1764              		.loc 1 772 14
 1765 016c FB89     		ldrh	r3, [r7, #14]
 1766 016e 4DF28102 		movw	r2, #53377
 1767 0172 9342     		cmp	r3, r2
 1768 0174 2ED1     		bne	.L98
 773:Core/Src/GMG12864_lib.c **** 				if (font == FONT_3X5) { //–ï—Å–ª–∏ –≤—ã–±—Ä–∞–Ω —à—Ä–∏—Ñ—Ç —Ä–∞–∑–º–µ—Ä–∞ 3x5
 1769              		.loc 1 773 8
 1770 0176 7B79     		ldrb	r3, [r7, #5]	@ zero_extendqisi2
 1771 0178 002B     		cmp	r3, #0
 1772 017a 13D1     		bne	.L99
 774:Core/Src/GMG12864_lib.c **** 					if (inversion) {
 1773              		.loc 1 774 9
 1774 017c 3B79     		ldrb	r3, [r7, #4]	@ zero_extendqisi2
 1775 017e 002B     		cmp	r3, #0
 1776 0180 06D0     		beq	.L100
 775:Core/Src/GMG12864_lib.c **** 						GMG12864_Print_symbol_3x5(x, y, 159, 1); ////–¢–∞–±–ª–∏—Ü–∞ UTF-8. –ö–∏—Ä–∏–ª–ª–∏—Ü–∞. –ë—É–∫
 1777              		.loc 1 775 7
 1778 0182 B979     		ldrb	r1, [r7, #6]	@ zero_extendqisi2
 1779 0184 F879     		ldrb	r0, [r7, #7]	@ zero_extendqisi2
 1780 0186 0123     		movs	r3, #1
 1781 0188 9F22     		movs	r2, #159
 1782 018a FFF7FEFF 		bl	GMG12864_Print_symbol_3x5
ARM GAS  C:\Users\SOLDER~1\AppData\Local\Temp\ccg2RcbO.s 			page 52


 1783 018e 05E0     		b	.L101
 1784              	.L100:
 776:Core/Src/GMG12864_lib.c **** 					} else {
 777:Core/Src/GMG12864_lib.c **** 						GMG12864_Print_symbol_3x5(x, y, 159, 0); ////–¢–∞–±–ª–∏—Ü–∞ UTF-8. –ö–∏—Ä–∏–ª–ª–∏—Ü–∞. –ë—É–∫
 1785              		.loc 1 777 7
 1786 0190 B979     		ldrb	r1, [r7, #6]	@ zero_extendqisi2
 1787 0192 F879     		ldrb	r0, [r7, #7]	@ zero_extendqisi2
 1788 0194 0023     		movs	r3, #0
 1789 0196 9F22     		movs	r2, #159
 1790 0198 FFF7FEFF 		bl	GMG12864_Print_symbol_3x5
 1791              	.L101:
 778:Core/Src/GMG12864_lib.c **** 					}
 779:Core/Src/GMG12864_lib.c **** 					x = x + 4;
 1792              		.loc 1 779 8
 1793 019c FB79     		ldrb	r3, [r7, #7]
 1794 019e 0433     		adds	r3, r3, #4
 1795 01a0 FB71     		strb	r3, [r7, #7]
 1796 01a2 BDE0     		b	.L97
 1797              	.L99:
 780:Core/Src/GMG12864_lib.c **** 				} else if (font == FONT_5X7) { //–ï—Å–ª–∏ –≤—ã–±—Ä–∞–Ω —à—Ä–∏—Ñ—Ç —Ä–∞–∑–º–µ—Ä–∞ 5x7
 1798              		.loc 1 780 15
 1799 01a4 7B79     		ldrb	r3, [r7, #5]	@ zero_extendqisi2
 1800 01a6 012B     		cmp	r3, #1
 1801 01a8 40F0BA80 		bne	.L97
 781:Core/Src/GMG12864_lib.c **** 					if (inversion) {
 1802              		.loc 1 781 9
 1803 01ac 3B79     		ldrb	r3, [r7, #4]	@ zero_extendqisi2
 1804 01ae 002B     		cmp	r3, #0
 1805 01b0 06D0     		beq	.L102
 782:Core/Src/GMG12864_lib.c **** 						GMG12864_Print_symbol_5x7(x, y, 159, 1); ////–¢–∞–±–ª–∏—Ü–∞ UTF-8. –ö–∏—Ä–∏–ª–ª–∏—Ü–∞. –ë—É–∫
 1806              		.loc 1 782 7
 1807 01b2 B979     		ldrb	r1, [r7, #6]	@ zero_extendqisi2
 1808 01b4 F879     		ldrb	r0, [r7, #7]	@ zero_extendqisi2
 1809 01b6 0123     		movs	r3, #1
 1810 01b8 9F22     		movs	r2, #159
 1811 01ba FFF7FEFF 		bl	GMG12864_Print_symbol_5x7
 1812 01be 05E0     		b	.L103
 1813              	.L102:
 783:Core/Src/GMG12864_lib.c **** 					} else {
 784:Core/Src/GMG12864_lib.c **** 						GMG12864_Print_symbol_5x7(x, y, 159, 0); ////–¢–∞–±–ª–∏—Ü–∞ UTF-8. –ö–∏—Ä–∏–ª–ª–∏—Ü–∞. –ë—É–∫
 1814              		.loc 1 784 7
 1815 01c0 B979     		ldrb	r1, [r7, #6]	@ zero_extendqisi2
 1816 01c2 F879     		ldrb	r0, [r7, #7]	@ zero_extendqisi2
 1817 01c4 0023     		movs	r3, #0
 1818 01c6 9F22     		movs	r2, #159
 1819 01c8 FFF7FEFF 		bl	GMG12864_Print_symbol_5x7
 1820              	.L103:
 785:Core/Src/GMG12864_lib.c **** 					}
 786:Core/Src/GMG12864_lib.c **** 					x = x + 6;
 1821              		.loc 1 786 8
 1822 01cc FB79     		ldrb	r3, [r7, #7]
 1823 01ce 0633     		adds	r3, r3, #6
 1824 01d0 FB71     		strb	r3, [r7, #7]
 1825 01d2 A5E0     		b	.L97
 1826              	.L98:
 787:Core/Src/GMG12864_lib.c **** 				}
 788:Core/Src/GMG12864_lib.c **** 			} else if (symbol == 0xD191) {
ARM GAS  C:\Users\SOLDER~1\AppData\Local\Temp\ccg2RcbO.s 			page 53


 1827              		.loc 1 788 14
 1828 01d4 FB89     		ldrh	r3, [r7, #14]
 1829 01d6 4DF29112 		movw	r2, #53649
 1830 01da 9342     		cmp	r3, r2
 1831 01dc 2ED1     		bne	.L104
 789:Core/Src/GMG12864_lib.c **** 				if (font == FONT_3X5) { //–ï—Å–ª–∏ –≤—ã–±—Ä–∞–Ω —à—Ä–∏—Ñ—Ç —Ä–∞–∑–º–µ—Ä–∞ 3x5
 1832              		.loc 1 789 8
 1833 01de 7B79     		ldrb	r3, [r7, #5]	@ zero_extendqisi2
 1834 01e0 002B     		cmp	r3, #0
 1835 01e2 13D1     		bne	.L105
 790:Core/Src/GMG12864_lib.c **** 					if (inversion) {
 1836              		.loc 1 790 9
 1837 01e4 3B79     		ldrb	r3, [r7, #4]	@ zero_extendqisi2
 1838 01e6 002B     		cmp	r3, #0
 1839 01e8 06D0     		beq	.L106
 791:Core/Src/GMG12864_lib.c **** 						GMG12864_Print_symbol_3x5(x, y, 160, 1); ////–¢–∞–±–ª–∏—Ü–∞ UTF-8. –ö–∏—Ä–∏–ª–ª–∏—Ü–∞. –ë—É–∫
 1840              		.loc 1 791 7
 1841 01ea B979     		ldrb	r1, [r7, #6]	@ zero_extendqisi2
 1842 01ec F879     		ldrb	r0, [r7, #7]	@ zero_extendqisi2
 1843 01ee 0123     		movs	r3, #1
 1844 01f0 A022     		movs	r2, #160
 1845 01f2 FFF7FEFF 		bl	GMG12864_Print_symbol_3x5
 1846 01f6 05E0     		b	.L107
 1847              	.L106:
 792:Core/Src/GMG12864_lib.c **** 					} else {
 793:Core/Src/GMG12864_lib.c **** 						GMG12864_Print_symbol_3x5(x, y, 160, 0); ////–¢–∞–±–ª–∏—Ü–∞ UTF-8. –ö–∏—Ä–∏–ª–ª–∏—Ü–∞. –ë—É–∫
 1848              		.loc 1 793 7
 1849 01f8 B979     		ldrb	r1, [r7, #6]	@ zero_extendqisi2
 1850 01fa F879     		ldrb	r0, [r7, #7]	@ zero_extendqisi2
 1851 01fc 0023     		movs	r3, #0
 1852 01fe A022     		movs	r2, #160
 1853 0200 FFF7FEFF 		bl	GMG12864_Print_symbol_3x5
 1854              	.L107:
 794:Core/Src/GMG12864_lib.c **** 					}
 795:Core/Src/GMG12864_lib.c **** 					x = x + 4;
 1855              		.loc 1 795 8
 1856 0204 FB79     		ldrb	r3, [r7, #7]
 1857 0206 0433     		adds	r3, r3, #4
 1858 0208 FB71     		strb	r3, [r7, #7]
 1859 020a 89E0     		b	.L97
 1860              	.L105:
 796:Core/Src/GMG12864_lib.c **** 				} else if (font == FONT_5X7) { //–ï—Å–ª–∏ –≤—ã–±—Ä–∞–Ω —à—Ä–∏—Ñ—Ç —Ä–∞–∑–º–µ—Ä–∞ 5x7
 1861              		.loc 1 796 15
 1862 020c 7B79     		ldrb	r3, [r7, #5]	@ zero_extendqisi2
 1863 020e 012B     		cmp	r3, #1
 1864 0210 40F08680 		bne	.L97
 797:Core/Src/GMG12864_lib.c **** 					if (inversion) {
 1865              		.loc 1 797 9
 1866 0214 3B79     		ldrb	r3, [r7, #4]	@ zero_extendqisi2
 1867 0216 002B     		cmp	r3, #0
 1868 0218 06D0     		beq	.L108
 798:Core/Src/GMG12864_lib.c **** 						GMG12864_Print_symbol_5x7(x, y, 160, 1); ////–¢–∞–±–ª–∏—Ü–∞ UTF-8. –ö–∏—Ä–∏–ª–ª–∏—Ü–∞. –ë—É–∫
 1869              		.loc 1 798 7
 1870 021a B979     		ldrb	r1, [r7, #6]	@ zero_extendqisi2
 1871 021c F879     		ldrb	r0, [r7, #7]	@ zero_extendqisi2
 1872 021e 0123     		movs	r3, #1
 1873 0220 A022     		movs	r2, #160
ARM GAS  C:\Users\SOLDER~1\AppData\Local\Temp\ccg2RcbO.s 			page 54


 1874 0222 FFF7FEFF 		bl	GMG12864_Print_symbol_5x7
 1875 0226 05E0     		b	.L109
 1876              	.L108:
 799:Core/Src/GMG12864_lib.c **** 					} else {
 800:Core/Src/GMG12864_lib.c **** 						GMG12864_Print_symbol_5x7(x, y, 160, 0); ////–¢–∞–±–ª–∏—Ü–∞ UTF-8. –ö–∏—Ä–∏–ª–ª–∏—Ü–∞. –ë—É–∫
 1877              		.loc 1 800 7
 1878 0228 B979     		ldrb	r1, [r7, #6]	@ zero_extendqisi2
 1879 022a F879     		ldrb	r0, [r7, #7]	@ zero_extendqisi2
 1880 022c 0023     		movs	r3, #0
 1881 022e A022     		movs	r2, #160
 1882 0230 FFF7FEFF 		bl	GMG12864_Print_symbol_5x7
 1883              	.L109:
 801:Core/Src/GMG12864_lib.c **** 					}
 802:Core/Src/GMG12864_lib.c **** 					x = x + 6;
 1884              		.loc 1 802 8
 1885 0234 FB79     		ldrb	r3, [r7, #7]
 1886 0236 0633     		adds	r3, r3, #6
 1887 0238 FB71     		strb	r3, [r7, #7]
 1888 023a 71E0     		b	.L97
 1889              	.L104:
 803:Core/Src/GMG12864_lib.c **** 				}
 804:Core/Src/GMG12864_lib.c **** 			} else if (symbol == 0xC2B0) {
 1890              		.loc 1 804 14
 1891 023c FB89     		ldrh	r3, [r7, #14]
 1892 023e 4CF2B022 		movw	r2, #49840
 1893 0242 9342     		cmp	r3, r2
 1894 0244 2DD1     		bne	.L110
 805:Core/Src/GMG12864_lib.c **** 				if (font == FONT_3X5) { //–ï—Å–ª–∏ –≤—ã–±—Ä–∞–Ω —à—Ä–∏—Ñ—Ç —Ä–∞–∑–º–µ—Ä–∞ 3x5
 1895              		.loc 1 805 8
 1896 0246 7B79     		ldrb	r3, [r7, #5]	@ zero_extendqisi2
 1897 0248 002B     		cmp	r3, #0
 1898 024a 13D1     		bne	.L111
 806:Core/Src/GMG12864_lib.c **** 					if (inversion) {
 1899              		.loc 1 806 9
 1900 024c 3B79     		ldrb	r3, [r7, #4]	@ zero_extendqisi2
 1901 024e 002B     		cmp	r3, #0
 1902 0250 06D0     		beq	.L112
 807:Core/Src/GMG12864_lib.c **** 						GMG12864_Print_symbol_3x5(x, y, 161, 1); ////–¢–∞–±–ª–∏—Ü–∞ UTF-8. Basic Latin. –°–∏–º–≤–æ–ª 
 1903              		.loc 1 807 7
 1904 0252 B979     		ldrb	r1, [r7, #6]	@ zero_extendqisi2
 1905 0254 F879     		ldrb	r0, [r7, #7]	@ zero_extendqisi2
 1906 0256 0123     		movs	r3, #1
 1907 0258 A122     		movs	r2, #161
 1908 025a FFF7FEFF 		bl	GMG12864_Print_symbol_3x5
 1909 025e 05E0     		b	.L113
 1910              	.L112:
 808:Core/Src/GMG12864_lib.c **** 					} else {
 809:Core/Src/GMG12864_lib.c **** 						GMG12864_Print_symbol_3x5(x, y, 161, 0); ////–¢–∞–±–ª–∏—Ü–∞ UTF-8. Basic Latin. –°–∏–º–≤–æ–ª 
 1911              		.loc 1 809 7
 1912 0260 B979     		ldrb	r1, [r7, #6]	@ zero_extendqisi2
 1913 0262 F879     		ldrb	r0, [r7, #7]	@ zero_extendqisi2
 1914 0264 0023     		movs	r3, #0
 1915 0266 A122     		movs	r2, #161
 1916 0268 FFF7FEFF 		bl	GMG12864_Print_symbol_3x5
 1917              	.L113:
 810:Core/Src/GMG12864_lib.c **** 					}
 811:Core/Src/GMG12864_lib.c **** 					x = x + 4;
ARM GAS  C:\Users\SOLDER~1\AppData\Local\Temp\ccg2RcbO.s 			page 55


 1918              		.loc 1 811 8
 1919 026c FB79     		ldrb	r3, [r7, #7]
 1920 026e 0433     		adds	r3, r3, #4
 1921 0270 FB71     		strb	r3, [r7, #7]
 1922 0272 55E0     		b	.L97
 1923              	.L111:
 812:Core/Src/GMG12864_lib.c **** 				} else if (font == FONT_5X7) { //–ï—Å–ª–∏ –≤—ã–±—Ä–∞–Ω —à—Ä–∏—Ñ—Ç —Ä–∞–∑–º–µ—Ä–∞ 5x7
 1924              		.loc 1 812 15
 1925 0274 7B79     		ldrb	r3, [r7, #5]	@ zero_extendqisi2
 1926 0276 012B     		cmp	r3, #1
 1927 0278 52D1     		bne	.L97
 813:Core/Src/GMG12864_lib.c **** 					if (inversion) {
 1928              		.loc 1 813 9
 1929 027a 3B79     		ldrb	r3, [r7, #4]	@ zero_extendqisi2
 1930 027c 002B     		cmp	r3, #0
 1931 027e 06D0     		beq	.L114
 814:Core/Src/GMG12864_lib.c **** 						GMG12864_Print_symbol_5x7(x, y, 161, 1); ////–¢–∞–±–ª–∏—Ü–∞ UTF-8. Basic Latin. –°–∏–º–≤–æ–ª 
 1932              		.loc 1 814 7
 1933 0280 B979     		ldrb	r1, [r7, #6]	@ zero_extendqisi2
 1934 0282 F879     		ldrb	r0, [r7, #7]	@ zero_extendqisi2
 1935 0284 0123     		movs	r3, #1
 1936 0286 A122     		movs	r2, #161
 1937 0288 FFF7FEFF 		bl	GMG12864_Print_symbol_5x7
 1938 028c 05E0     		b	.L115
 1939              	.L114:
 815:Core/Src/GMG12864_lib.c **** 					} else {
 816:Core/Src/GMG12864_lib.c **** 						GMG12864_Print_symbol_5x7(x, y, 161, 0); ////–¢–∞–±–ª–∏—Ü–∞ UTF-8. Basic Latin. –°–∏–º–≤–æ–ª 
 1940              		.loc 1 816 7
 1941 028e B979     		ldrb	r1, [r7, #6]	@ zero_extendqisi2
 1942 0290 F879     		ldrb	r0, [r7, #7]	@ zero_extendqisi2
 1943 0292 0023     		movs	r3, #0
 1944 0294 A122     		movs	r2, #161
 1945 0296 FFF7FEFF 		bl	GMG12864_Print_symbol_5x7
 1946              	.L115:
 817:Core/Src/GMG12864_lib.c **** 					}
 818:Core/Src/GMG12864_lib.c **** 					x = x + 6;
 1947              		.loc 1 818 8
 1948 029a FB79     		ldrb	r3, [r7, #7]
 1949 029c 0633     		adds	r3, r3, #6
 1950 029e FB71     		strb	r3, [r7, #7]
 1951 02a0 3EE0     		b	.L97
 1952              	.L110:
 819:Core/Src/GMG12864_lib.c **** 				}
 820:Core/Src/GMG12864_lib.c **** 			}
 821:Core/Src/GMG12864_lib.c **** 
 822:Core/Src/GMG12864_lib.c **** 			else {
 823:Core/Src/GMG12864_lib.c **** 				if (font == FONT_3X5) { //–ï—Å–ª–∏ –≤—ã–±—Ä–∞–Ω —à—Ä–∏—Ñ—Ç —Ä–∞–∑–º–µ—Ä–∞ 3x5
 1953              		.loc 1 823 8
 1954 02a2 7B79     		ldrb	r3, [r7, #5]	@ zero_extendqisi2
 1955 02a4 002B     		cmp	r3, #0
 1956 02a6 1BD1     		bne	.L116
 824:Core/Src/GMG12864_lib.c **** 					if (inversion) {
 1957              		.loc 1 824 9
 1958 02a8 3B79     		ldrb	r3, [r7, #4]	@ zero_extendqisi2
 1959 02aa 002B     		cmp	r3, #0
 1960 02ac 0AD0     		beq	.L117
 825:Core/Src/GMG12864_lib.c **** 						GMG12864_Print_symbol_3x5(x, y, symbol - 53489, 1); //–¢–∞–±–ª–∏—Ü–∞ UTF-8. –ö–∏—Ä–∏–ª–ª–∏—Ü–
ARM GAS  C:\Users\SOLDER~1\AppData\Local\Temp\ccg2RcbO.s 			page 56


 1961              		.loc 1 825 7
 1962 02ae FB89     		ldrh	r3, [r7, #14]	@ movhi
 1963 02b0 03F53C53 		add	r3, r3, #12032
 1964 02b4 0F33     		adds	r3, r3, #15
 1965 02b6 9AB2     		uxth	r2, r3
 1966 02b8 B979     		ldrb	r1, [r7, #6]	@ zero_extendqisi2
 1967 02ba F879     		ldrb	r0, [r7, #7]	@ zero_extendqisi2
 1968 02bc 0123     		movs	r3, #1
 1969 02be FFF7FEFF 		bl	GMG12864_Print_symbol_3x5
 1970 02c2 09E0     		b	.L118
 1971              	.L117:
 826:Core/Src/GMG12864_lib.c **** 					} else {
 827:Core/Src/GMG12864_lib.c **** 						GMG12864_Print_symbol_3x5(x, y, symbol - 53489, 0); //–¢–∞–±–ª–∏—Ü–∞ UTF-8. –ö–∏—Ä–∏–ª–ª–∏—Ü–
 1972              		.loc 1 827 7
 1973 02c4 FB89     		ldrh	r3, [r7, #14]	@ movhi
 1974 02c6 03F53C53 		add	r3, r3, #12032
 1975 02ca 0F33     		adds	r3, r3, #15
 1976 02cc 9AB2     		uxth	r2, r3
 1977 02ce B979     		ldrb	r1, [r7, #6]	@ zero_extendqisi2
 1978 02d0 F879     		ldrb	r0, [r7, #7]	@ zero_extendqisi2
 1979 02d2 0023     		movs	r3, #0
 1980 02d4 FFF7FEFF 		bl	GMG12864_Print_symbol_3x5
 1981              	.L118:
 828:Core/Src/GMG12864_lib.c **** 					}
 829:Core/Src/GMG12864_lib.c **** 					x = x + 4;
 1982              		.loc 1 829 8
 1983 02d8 FB79     		ldrb	r3, [r7, #7]
 1984 02da 0433     		adds	r3, r3, #4
 1985 02dc FB71     		strb	r3, [r7, #7]
 1986 02de 1FE0     		b	.L97
 1987              	.L116:
 830:Core/Src/GMG12864_lib.c **** 				} else if (font == FONT_5X7) { //–ï—Å–ª–∏ –≤—ã–±—Ä–∞–Ω —à—Ä–∏—Ñ—Ç —Ä–∞–∑–º–µ—Ä–∞ 5x7
 1988              		.loc 1 830 15
 1989 02e0 7B79     		ldrb	r3, [r7, #5]	@ zero_extendqisi2
 1990 02e2 012B     		cmp	r3, #1
 1991 02e4 1CD1     		bne	.L97
 831:Core/Src/GMG12864_lib.c **** 					if (inversion) {
 1992              		.loc 1 831 9
 1993 02e6 3B79     		ldrb	r3, [r7, #4]	@ zero_extendqisi2
 1994 02e8 002B     		cmp	r3, #0
 1995 02ea 0AD0     		beq	.L119
 832:Core/Src/GMG12864_lib.c **** 						GMG12864_Print_symbol_5x7(x, y, symbol - 53489, 1); //–¢–∞–±–ª–∏—Ü–∞ UTF-8. –ö–∏—Ä–∏–ª–ª–∏—Ü–
 1996              		.loc 1 832 7
 1997 02ec FB89     		ldrh	r3, [r7, #14]	@ movhi
 1998 02ee 03F53C53 		add	r3, r3, #12032
 1999 02f2 0F33     		adds	r3, r3, #15
 2000 02f4 9AB2     		uxth	r2, r3
 2001 02f6 B979     		ldrb	r1, [r7, #6]	@ zero_extendqisi2
 2002 02f8 F879     		ldrb	r0, [r7, #7]	@ zero_extendqisi2
 2003 02fa 0123     		movs	r3, #1
 2004 02fc FFF7FEFF 		bl	GMG12864_Print_symbol_5x7
 2005 0300 09E0     		b	.L120
 2006              	.L119:
 833:Core/Src/GMG12864_lib.c **** 					} else {
 834:Core/Src/GMG12864_lib.c **** 						GMG12864_Print_symbol_5x7(x, y, symbol - 53489, 0); //–¢–∞–±–ª–∏—Ü–∞ UTF-8. –ö–∏—Ä–∏–ª–ª–∏—Ü–
 2007              		.loc 1 834 7
 2008 0302 FB89     		ldrh	r3, [r7, #14]	@ movhi
ARM GAS  C:\Users\SOLDER~1\AppData\Local\Temp\ccg2RcbO.s 			page 57


 2009 0304 03F53C53 		add	r3, r3, #12032
 2010 0308 0F33     		adds	r3, r3, #15
 2011 030a 9AB2     		uxth	r2, r3
 2012 030c B979     		ldrb	r1, [r7, #6]	@ zero_extendqisi2
 2013 030e F879     		ldrb	r0, [r7, #7]	@ zero_extendqisi2
 2014 0310 0023     		movs	r3, #0
 2015 0312 FFF7FEFF 		bl	GMG12864_Print_symbol_5x7
 2016              	.L120:
 835:Core/Src/GMG12864_lib.c **** 					}
 836:Core/Src/GMG12864_lib.c **** 					x = x + 6;
 2017              		.loc 1 836 8
 2018 0316 FB79     		ldrb	r3, [r7, #7]
 2019 0318 0633     		adds	r3, r3, #6
 2020 031a FB71     		strb	r3, [r7, #7]
 2021 031c 00E0     		b	.L97
 2022              	.L122:
 757:Core/Src/GMG12864_lib.c **** 					if (inversion) {
 2023              		.loc 1 757 8
 2024 031e 00BF     		nop
 2025              	.L97:
 837:Core/Src/GMG12864_lib.c **** 				}
 838:Core/Src/GMG12864_lib.c **** 			}
 839:Core/Src/GMG12864_lib.c **** 			flag_block = 1;
 2026              		.loc 1 839 15
 2027 0320 0123     		movs	r3, #1
 2028 0322 FB75     		strb	r3, [r7, #23]
 2029              	.L84:
 730:Core/Src/GMG12864_lib.c **** 		if (tx_buffer[i] < 0xC0) { //–ê–Ω–≥–ª–∏–π—Å–∫–∏–π —Ç–µ–∫—Å—Ç –∏ —Å–∏–º–≤–æ–ª—ã. –ï—Å–ª–∏ –¥–æ —Ä—
 2030              		.loc 1 730 42 discriminator 2
 2031 0324 3B69     		ldr	r3, [r7, #16]
 2032 0326 0133     		adds	r3, r3, #1
 2033 0328 3B61     		str	r3, [r7, #16]
 2034              	.L81:
 730:Core/Src/GMG12864_lib.c **** 		if (tx_buffer[i] < 0xC0) { //–ê–Ω–≥–ª–∏–π—Å–∫–∏–π —Ç–µ–∫—Å—Ç –∏ —Å–∏–º–≤–æ–ª—ã. –ï—Å–ª–∏ –¥–æ —Ä—
 2035              		.loc 1 730 22 discriminator 1
 2036 032a B86A     		ldr	r0, [r7, #40]
 2037 032c FFF7FEFF 		bl	strlen
 2038 0330 0246     		mov	r2, r0
 730:Core/Src/GMG12864_lib.c **** 		if (tx_buffer[i] < 0xC0) { //–ê–Ω–≥–ª–∏–π—Å–∫–∏–π —Ç–µ–∫—Å—Ç –∏ —Å–∏–º–≤–æ–ª—ã. –ï—Å–ª–∏ –¥–æ —Ä—
 2039              		.loc 1 730 20 discriminator 1
 2040 0332 3B69     		ldr	r3, [r7, #16]
 730:Core/Src/GMG12864_lib.c **** 		if (tx_buffer[i] < 0xC0) { //–ê–Ω–≥–ª–∏–π—Å–∫–∏–π —Ç–µ–∫—Å—Ç –∏ —Å–∏–º–≤–æ–ª—ã. –ï—Å–ª–∏ –¥–æ —Ä—
 2041              		.loc 1 730 2 discriminator 1
 2042 0334 9A42     		cmp	r2, r3
 2043 0336 3FF679AE 		bhi	.L121
 2044              	.LBE15:
 840:Core/Src/GMG12864_lib.c **** 		}
 841:Core/Src/GMG12864_lib.c **** 	}
 842:Core/Src/GMG12864_lib.c **** }
 2045              		.loc 1 842 1
 2046 033a 00BF     		nop
 2047 033c 00BF     		nop
 2048 033e 1C37     		adds	r7, r7, #28
 2049              		.cfi_def_cfa_offset 12
 2050 0340 BD46     		mov	sp, r7
 2051              		.cfi_def_cfa_register 13
 2052              		@ sp needed
ARM GAS  C:\Users\SOLDER~1\AppData\Local\Temp\ccg2RcbO.s 			page 58


 2053 0342 90BD     		pop	{r4, r7, pc}
 2054              		.cfi_endproc
 2055              	.LFE78:
 2057              		.section	.text.GMG12864_Inversion,"ax",%progbits
 2058              		.align	1
 2059              		.global	GMG12864_Inversion
 2060              		.syntax unified
 2061              		.thumb
 2062              		.thumb_func
 2064              	GMG12864_Inversion:
 2065              	.LFB79:
 843:Core/Src/GMG12864_lib.c **** /*----------------–§—É–Ω–∫—Ü–∏—è –¥–µ–∫–æ–¥–∏—Ä–æ–≤–∞–Ω–∏—è UTF-8 –≤ –Ω–∞–±–æ—Ä —Å–∏–º–≤–æ–ª–æ–≤---
 844:Core/Src/GMG12864_lib.c **** 
 845:Core/Src/GMG12864_lib.c **** /*---------------------–§—É–Ω–∫—Ü–∏—è –∏–Ω–≤–µ—Ä—Å–∏–∏ –ª—é–±–æ–≥–æ –º–µ—Å—Ç–∞ –≤ –±—É—Ñ–µ—Ä–µ-----
 846:Core/Src/GMG12864_lib.c **** void GMG12864_Inversion(uint16_t x_start, uint16_t x_end) {
 2066              		.loc 1 846 59
 2067              		.cfi_startproc
 2068              		@ args = 0, pretend = 0, frame = 8
 2069              		@ frame_needed = 1, uses_anonymous_args = 0
 2070              		@ link register save eliminated.
 2071 0000 80B4     		push	{r7}
 2072              		.cfi_def_cfa_offset 4
 2073              		.cfi_offset 7, -4
 2074 0002 83B0     		sub	sp, sp, #12
 2075              		.cfi_def_cfa_offset 16
 2076 0004 00AF     		add	r7, sp, #0
 2077              		.cfi_def_cfa_register 7
 2078 0006 0346     		mov	r3, r0
 2079 0008 0A46     		mov	r2, r1
 2080 000a FB80     		strh	r3, [r7, #6]	@ movhi
 2081 000c 1346     		mov	r3, r2	@ movhi
 2082 000e BB80     		strh	r3, [r7, #4]	@ movhi
 847:Core/Src/GMG12864_lib.c **** /// –§—É–Ω–∫—Ü–∏—è –∏–Ω–≤–µ—Ä—Å–∏–∏ –ª—é–±–æ–≥–æ –º–µ—Å—Ç–∞ –≤ –±—É—Ñ–µ—Ä–µ
 848:Core/Src/GMG12864_lib.c **** /// \param x_start - –Ω–∞—á–∞–ª—å–Ω–∞—è —Ç–æ—á–∫–∞ –ø–æ —Ö –æ—Ç 0 –¥–æ 1024
 849:Core/Src/GMG12864_lib.c **** /// \param x_end - –∫–æ–Ω–µ—á–Ω–∞—è —Ç–æ—á–∫–∞ –ø–æ y –æ—Ç 0 –¥–æ 1024
 850:Core/Src/GMG12864_lib.c **** 	for (; x_start < x_end; x_start++) {
 2083              		.loc 1 850 2
 2084 0010 0AE0     		b	.L124
 2085              	.L125:
 851:Core/Src/GMG12864_lib.c **** 		Frame_buffer[x_start] = ~(Frame_buffer[x_start]);
 2086              		.loc 1 851 41 discriminator 2
 2087 0012 FB88     		ldrh	r3, [r7, #6]
 2088 0014 094A     		ldr	r2, .L126
 2089 0016 D25C     		ldrb	r2, [r2, r3]	@ zero_extendqisi2
 2090              		.loc 1 851 15 discriminator 2
 2091 0018 FB88     		ldrh	r3, [r7, #6]
 2092              		.loc 1 851 25 discriminator 2
 2093 001a D243     		mvns	r2, r2
 2094 001c D1B2     		uxtb	r1, r2
 2095 001e 074A     		ldr	r2, .L126
 2096 0020 D154     		strb	r1, [r2, r3]
 850:Core/Src/GMG12864_lib.c **** 		Frame_buffer[x_start] = ~(Frame_buffer[x_start]);
 2097              		.loc 1 850 33 discriminator 2
 2098 0022 FB88     		ldrh	r3, [r7, #6]
 2099 0024 0133     		adds	r3, r3, #1
 2100 0026 FB80     		strh	r3, [r7, #6]	@ movhi
 2101              	.L124:
ARM GAS  C:\Users\SOLDER~1\AppData\Local\Temp\ccg2RcbO.s 			page 59


 850:Core/Src/GMG12864_lib.c **** 		Frame_buffer[x_start] = ~(Frame_buffer[x_start]);
 2102              		.loc 1 850 2 discriminator 1
 2103 0028 FA88     		ldrh	r2, [r7, #6]
 2104 002a BB88     		ldrh	r3, [r7, #4]
 2105 002c 9A42     		cmp	r2, r3
 2106 002e F0D3     		bcc	.L125
 852:Core/Src/GMG12864_lib.c **** 	}
 853:Core/Src/GMG12864_lib.c **** }
 2107              		.loc 1 853 1
 2108 0030 00BF     		nop
 2109 0032 00BF     		nop
 2110 0034 0C37     		adds	r7, r7, #12
 2111              		.cfi_def_cfa_offset 4
 2112 0036 BD46     		mov	sp, r7
 2113              		.cfi_def_cfa_register 13
 2114              		@ sp needed
 2115 0038 80BC     		pop	{r7}
 2116              		.cfi_restore 7
 2117              		.cfi_def_cfa_offset 0
 2118 003a 7047     		bx	lr
 2119              	.L127:
 2120              		.align	2
 2121              	.L126:
 2122 003c 00000000 		.word	Frame_buffer
 2123              		.cfi_endproc
 2124              	.LFE79:
 2126              		.global	__aeabi_i2f
 2127              		.global	__aeabi_fcmpge
 2128              		.global	__aeabi_fcmple
 2129              		.global	__aeabi_fsub
 2130              		.global	__aeabi_fdiv
 2131              		.global	__aeabi_fmul
 2132              		.global	__aeabi_f2uiz
 2133              		.global	__aeabi_fcmpgt
 2134              		.section	.rodata
 2135 0039 000000   		.align	2
 2136              	.LC3:
 2137 003c 20202043 		.ascii	"   Clipping    \000"
 2137      6C697070 
 2137      696E6720 
 2137      20202000 
 2138              		.global	__aeabi_fcmplt
 2139              		.section	.text.GMG12864_Value_for_Plot,"ax",%progbits
 2140              		.align	1
 2141              		.global	GMG12864_Value_for_Plot
 2142              		.syntax unified
 2143              		.thumb
 2144              		.thumb_func
 2146              	GMG12864_Value_for_Plot:
 2147              	.LFB80:
 854:Core/Src/GMG12864_lib.c **** /*---------------------–§—É–Ω–∫—Ü–∏—è –∏–Ω–≤–µ—Ä—Å–∏–∏ –ª—é–±–æ–≥–æ –º–µ—Å—Ç–∞ –≤ –±—É—Ñ–µ—Ä–µ-----
 855:Core/Src/GMG12864_lib.c **** 
 856:Core/Src/GMG12864_lib.c **** /*----------------–§—É–Ω–∫—Ü–∏—è, —Ñ–æ—Ä–º–∏—Ä—É—é—â–∞—è —Ç–æ—á–∫—É –∑–Ω–∞—á–µ–Ω–∏—è –Ω–∞ –≥—Ä–∞—Ñ–
 857:Core/Src/GMG12864_lib.c **** uint8_t GMG12864_Value_for_Plot(int y_min, int y_max, float value) {
 2148              		.loc 1 857 68
 2149              		.cfi_startproc
 2150              		@ args = 0, pretend = 0, frame = 48
ARM GAS  C:\Users\SOLDER~1\AppData\Local\Temp\ccg2RcbO.s 			page 60


 2151              		@ frame_needed = 1, uses_anonymous_args = 0
 2152 0000 90B5     		push	{r4, r7, lr}
 2153              		.cfi_def_cfa_offset 12
 2154              		.cfi_offset 4, -12
 2155              		.cfi_offset 7, -8
 2156              		.cfi_offset 14, -4
 2157 0002 8FB0     		sub	sp, sp, #60
 2158              		.cfi_def_cfa_offset 72
 2159 0004 02AF     		add	r7, sp, #8
 2160              		.cfi_def_cfa 7, 64
 2161 0006 F860     		str	r0, [r7, #12]
 2162 0008 B960     		str	r1, [r7, #8]
 2163 000a 7A60     		str	r2, [r7, #4]	@ float
 858:Core/Src/GMG12864_lib.c **** /// –§—É–Ω–∫—Ü–∏—è, —Ñ–æ—Ä–º–∏—Ä—É—é—â–∞—è —Ç–æ—á–∫—É –∑–Ω–∞—á–µ–Ω–∏—è –Ω–∞ –≥—Ä–∞—Ñ–∏–∫–µ
 859:Core/Src/GMG12864_lib.c **** /// \param int y_min - –º–∏–Ω–∏–º–∞–ª—å–Ω–æ–µ –∑–Ω–∞—á–µ–Ω–∏–µ –ø–æ –æ—Å–∏ y
 860:Core/Src/GMG12864_lib.c **** /// \param int y_max - –º–∞–∫—Å–∏–º–∞–ª—å–Ω–æ–µ –∑–Ω–∞—á–µ–Ω–∏–µ –ø–æ –æ—Å–∏ y
 861:Core/Src/GMG12864_lib.c **** /// \param float value - –∑–Ω–∞—á–µ–Ω–∏–µ, –∫–æ—Ç–æ—Ä–æ–µ –±—É–¥–µ–º –æ—Ç–æ–±—Ä–∞–∂–∞—Ç—å –Ω–∞ –≥—Ä
 862:Core/Src/GMG12864_lib.c **** 	char text[20] = { 0, };
 2164              		.loc 1 862 7
 2165 000c 0023     		movs	r3, #0
 2166 000e 7B61     		str	r3, [r7, #20]
 2167 0010 07F11803 		add	r3, r7, #24
 2168 0014 0022     		movs	r2, #0
 2169 0016 1A60     		str	r2, [r3]
 2170 0018 5A60     		str	r2, [r3, #4]
 2171 001a 9A60     		str	r2, [r3, #8]
 2172 001c DA60     		str	r2, [r3, #12]
 863:Core/Src/GMG12864_lib.c **** 	uint8_t Graph_value = 0;
 2173              		.loc 1 863 10
 2174 001e 0023     		movs	r3, #0
 2175 0020 87F82F30 		strb	r3, [r7, #47]
 864:Core/Src/GMG12864_lib.c **** 	if (y_max > y_min && value >= y_min && value <= y_max) {
 2176              		.loc 1 864 5
 2177 0024 BA68     		ldr	r2, [r7, #8]
 2178 0026 FB68     		ldr	r3, [r7, #12]
 2179 0028 9A42     		cmp	r2, r3
 2180 002a 3DDD     		ble	.L129
 2181              		.loc 1 864 29 discriminator 1
 2182 002c F868     		ldr	r0, [r7, #12]
 2183 002e FFF7FEFF 		bl	__aeabi_i2f
 2184 0032 0346     		mov	r3, r0
 2185              		.loc 1 864 20 discriminator 1
 2186 0034 1946     		mov	r1, r3
 2187 0036 7868     		ldr	r0, [r7, #4]	@ float
 2188 0038 FFF7FEFF 		bl	__aeabi_fcmpge
 2189 003c 0346     		mov	r3, r0
 2190 003e 002B     		cmp	r3, #0
 2191 0040 32D0     		beq	.L129
 2192              		.loc 1 864 47 discriminator 2
 2193 0042 B868     		ldr	r0, [r7, #8]
 2194 0044 FFF7FEFF 		bl	__aeabi_i2f
 2195 0048 0346     		mov	r3, r0
 2196              		.loc 1 864 38 discriminator 2
 2197 004a 1946     		mov	r1, r3
 2198 004c 7868     		ldr	r0, [r7, #4]	@ float
 2199 004e FFF7FEFF 		bl	__aeabi_fcmple
 2200 0052 0346     		mov	r3, r0
ARM GAS  C:\Users\SOLDER~1\AppData\Local\Temp\ccg2RcbO.s 			page 61


 2201 0054 002B     		cmp	r3, #0
 2202 0056 27D0     		beq	.L129
 2203              	.LBB16:
 865:Core/Src/GMG12864_lib.c **** 		float y = 50.0f - (y_max + value * (-1)) * (50.0f / (y_max + y_min * (-1)));
 2204              		.loc 1 865 28
 2205 0058 B868     		ldr	r0, [r7, #8]
 2206 005a FFF7FEFF 		bl	__aeabi_i2f
 2207 005e 0346     		mov	r3, r0
 2208 0060 7968     		ldr	r1, [r7, #4]	@ float
 2209 0062 1846     		mov	r0, r3
 2210 0064 FFF7FEFF 		bl	__aeabi_fsub
 2211 0068 0346     		mov	r3, r0
 2212 006a 1C46     		mov	r4, r3
 2213              		.loc 1 865 62
 2214 006c BA68     		ldr	r2, [r7, #8]
 2215 006e FB68     		ldr	r3, [r7, #12]
 2216 0070 D31A     		subs	r3, r2, r3
 2217              		.loc 1 865 53
 2218 0072 1846     		mov	r0, r3
 2219 0074 FFF7FEFF 		bl	__aeabi_i2f
 2220 0078 0346     		mov	r3, r0
 2221 007a 1946     		mov	r1, r3
 2222 007c 2D48     		ldr	r0, .L142
 2223 007e FFF7FEFF 		bl	__aeabi_fdiv
 2224 0082 0346     		mov	r3, r0
 2225              		.loc 1 865 44
 2226 0084 1946     		mov	r1, r3
 2227 0086 2046     		mov	r0, r4
 2228 0088 FFF7FEFF 		bl	__aeabi_fmul
 2229 008c 0346     		mov	r3, r0
 2230              		.loc 1 865 9
 2231 008e 1946     		mov	r1, r3
 2232 0090 2848     		ldr	r0, .L142
 2233 0092 FFF7FEFF 		bl	__aeabi_fsub
 2234 0096 0346     		mov	r3, r0
 2235 0098 BB62     		str	r3, [r7, #40]	@ float
 866:Core/Src/GMG12864_lib.c **** 		Graph_value = (uint8_t) y;
 2236              		.loc 1 866 15
 2237 009a B86A     		ldr	r0, [r7, #40]	@ float
 2238 009c FFF7FEFF 		bl	__aeabi_f2uiz
 2239 00a0 0346     		mov	r3, r0
 2240 00a2 87F82F30 		strb	r3, [r7, #47]
 2241              	.LBE16:
 864:Core/Src/GMG12864_lib.c **** 	if (y_max > y_min && value >= y_min && value <= y_max) {
 2242              		.loc 1 864 57
 2243 00a6 3EE0     		b	.L132
 2244              	.L129:
 867:Core/Src/GMG12864_lib.c **** 	} else if (value > y_max) {
 2245              		.loc 1 867 19
 2246 00a8 B868     		ldr	r0, [r7, #8]
 2247 00aa FFF7FEFF 		bl	__aeabi_i2f
 2248 00ae 0346     		mov	r3, r0
 2249              		.loc 1 867 12
 2250 00b0 1946     		mov	r1, r3
 2251 00b2 7868     		ldr	r0, [r7, #4]	@ float
 2252 00b4 FFF7FEFF 		bl	__aeabi_fcmpgt
 2253 00b8 0346     		mov	r3, r0
ARM GAS  C:\Users\SOLDER~1\AppData\Local\Temp\ccg2RcbO.s 			page 62


 2254 00ba 002B     		cmp	r3, #0
 2255 00bc 14D0     		beq	.L141
 868:Core/Src/GMG12864_lib.c **** 		Graph_value = 50;
 2256              		.loc 1 868 15
 2257 00be 3223     		movs	r3, #50
 2258 00c0 87F82F30 		strb	r3, [r7, #47]
 869:Core/Src/GMG12864_lib.c **** 		sprintf(text, "   Clipping    ");
 2259              		.loc 1 869 3
 2260 00c4 07F11403 		add	r3, r7, #20
 2261 00c8 1B49     		ldr	r1, .L142+4
 2262 00ca 1846     		mov	r0, r3
 2263 00cc FFF7FEFF 		bl	sprintf
 870:Core/Src/GMG12864_lib.c **** 		GMG12864_Decode_UTF8(37, 26, 1, 0, text);
 2264              		.loc 1 870 3
 2265 00d0 07F11403 		add	r3, r7, #20
 2266 00d4 0093     		str	r3, [sp]
 2267 00d6 0023     		movs	r3, #0
 2268 00d8 0122     		movs	r2, #1
 2269 00da 1A21     		movs	r1, #26
 2270 00dc 2520     		movs	r0, #37
 2271 00de FFF7FEFF 		bl	GMG12864_Decode_UTF8
 871:Core/Src/GMG12864_lib.c **** 		GMG12864_Update();
 2272              		.loc 1 871 3
 2273 00e2 FFF7FEFF 		bl	GMG12864_Update
 2274 00e6 1EE0     		b	.L132
 2275              	.L141:
 872:Core/Src/GMG12864_lib.c **** 	} else if (value < y_min) {
 2276              		.loc 1 872 19
 2277 00e8 F868     		ldr	r0, [r7, #12]
 2278 00ea FFF7FEFF 		bl	__aeabi_i2f
 2279 00ee 0346     		mov	r3, r0
 2280              		.loc 1 872 12
 2281 00f0 1946     		mov	r1, r3
 2282 00f2 7868     		ldr	r0, [r7, #4]	@ float
 2283 00f4 FFF7FEFF 		bl	__aeabi_fcmplt
 2284 00f8 0346     		mov	r3, r0
 2285 00fa 002B     		cmp	r3, #0
 2286 00fc 13D0     		beq	.L132
 873:Core/Src/GMG12864_lib.c **** 		Graph_value = 0;
 2287              		.loc 1 873 15
 2288 00fe 0023     		movs	r3, #0
 2289 0100 87F82F30 		strb	r3, [r7, #47]
 874:Core/Src/GMG12864_lib.c **** 		sprintf(text, "   Clipping    ");
 2290              		.loc 1 874 3
 2291 0104 07F11403 		add	r3, r7, #20
 2292 0108 0B49     		ldr	r1, .L142+4
 2293 010a 1846     		mov	r0, r3
 2294 010c FFF7FEFF 		bl	sprintf
 875:Core/Src/GMG12864_lib.c **** 		GMG12864_Decode_UTF8(37, 26, 1, 0, text);
 2295              		.loc 1 875 3
 2296 0110 07F11403 		add	r3, r7, #20
 2297 0114 0093     		str	r3, [sp]
 2298 0116 0023     		movs	r3, #0
 2299 0118 0122     		movs	r2, #1
 2300 011a 1A21     		movs	r1, #26
 2301 011c 2520     		movs	r0, #37
 2302 011e FFF7FEFF 		bl	GMG12864_Decode_UTF8
ARM GAS  C:\Users\SOLDER~1\AppData\Local\Temp\ccg2RcbO.s 			page 63


 876:Core/Src/GMG12864_lib.c **** 		GMG12864_Update();
 2303              		.loc 1 876 3
 2304 0122 FFF7FEFF 		bl	GMG12864_Update
 2305              	.L132:
 877:Core/Src/GMG12864_lib.c **** 	}
 878:Core/Src/GMG12864_lib.c **** 	return Graph_value;
 2306              		.loc 1 878 9
 2307 0126 97F82F30 		ldrb	r3, [r7, #47]	@ zero_extendqisi2
 879:Core/Src/GMG12864_lib.c **** }
 2308              		.loc 1 879 1
 2309 012a 1846     		mov	r0, r3
 2310 012c 3437     		adds	r7, r7, #52
 2311              		.cfi_def_cfa_offset 12
 2312 012e BD46     		mov	sp, r7
 2313              		.cfi_def_cfa_register 13
 2314              		@ sp needed
 2315 0130 90BD     		pop	{r4, r7, pc}
 2316              	.L143:
 2317 0132 00BF     		.align	2
 2318              	.L142:
 2319 0134 00004842 		.word	1112014848
 2320 0138 3C000000 		.word	.LC3
 2321              		.cfi_endproc
 2322              	.LFE80:
 2324              		.section	.text.GMG12864_Fill_the_array_Plot,"ax",%progbits
 2325              		.align	1
 2326              		.global	GMG12864_Fill_the_array_Plot
 2327              		.syntax unified
 2328              		.thumb
 2329              		.thumb_func
 2331              	GMG12864_Fill_the_array_Plot:
 2332              	.LFB81:
 880:Core/Src/GMG12864_lib.c **** /*----------------–§—É–Ω–∫—Ü–∏—è, —Ñ–æ—Ä–º–∏—Ä—É—é—â–∞—è —Ç–æ—á–∫—É –∑–Ω–∞—á–µ–Ω–∏—è –Ω–∞ –≥—Ä–∞—Ñ–
 881:Core/Src/GMG12864_lib.c **** 
 882:Core/Src/GMG12864_lib.c **** /*-------------------–†–∞–±–æ—Ç–∞ —Å –º–∞—Å—Å–∏–≤–æ–º –¥–∞–Ω–Ω—ã—Ö---------------------*/
 883:Core/Src/GMG12864_lib.c **** 
 884:Core/Src/GMG12864_lib.c **** void GMG12864_Fill_the_array_Plot(uint8_t *counter, uint8_t *array, uint8_t size_array, uint8_t val
 2333              		.loc 1 884 104
 2334              		.cfi_startproc
 2335              		@ args = 0, pretend = 0, frame = 24
 2336              		@ frame_needed = 1, uses_anonymous_args = 0
 2337              		@ link register save eliminated.
 2338 0000 80B4     		push	{r7}
 2339              		.cfi_def_cfa_offset 4
 2340              		.cfi_offset 7, -4
 2341 0002 87B0     		sub	sp, sp, #28
 2342              		.cfi_def_cfa_offset 32
 2343 0004 00AF     		add	r7, sp, #0
 2344              		.cfi_def_cfa_register 7
 2345 0006 F860     		str	r0, [r7, #12]
 2346 0008 B960     		str	r1, [r7, #8]
 2347 000a 1146     		mov	r1, r2
 2348 000c 1A46     		mov	r2, r3
 2349 000e 0B46     		mov	r3, r1
 2350 0010 FB71     		strb	r3, [r7, #7]
 2351 0012 1346     		mov	r3, r2
 2352 0014 BB71     		strb	r3, [r7, #6]
ARM GAS  C:\Users\SOLDER~1\AppData\Local\Temp\ccg2RcbO.s 			page 64


 885:Core/Src/GMG12864_lib.c **** /// –§—É–Ω–∫—Ü–∏—è, –∑–∞–ø–æ–ª–Ω—è—é—â–∞—è –º–∞—Å—Å–∏–≤ –∑–Ω–∞—á–µ–Ω–∏—è–º–∏, —á—Ç–æ–± –æ—Ç—Ä–∏—Å–æ
 886:Core/Src/GMG12864_lib.c **** /// \param uint8_t *counter - —Å—á–µ—Ç—á–∏–∫ –∑–Ω–∞—á–µ–Ω–∏–π
 887:Core/Src/GMG12864_lib.c **** /// \param uint8_t *array - –º–∞—Å—Å–∏–≤, –∫—É–¥–∞ –±—É–¥–µ–º –∑–∞–∫–∏–¥—ã–≤–∞—Ç—å –∑–Ω–∞—á–µ–Ω–∏—è
 888:Core/Src/GMG12864_lib.c **** /// \param uint8_t size_array - —Ä–∞–∑–º–µ—Ä –º–∞—Å—Å–∏–≤–∞, –∫—É–¥–∞ –±—É–¥–µ–º –∑–∞–∫–∏–¥—ã–≤–∞—Ç
 889:Core/Src/GMG12864_lib.c **** /// \param uint8_t value - –ø–æ–¥–≥–æ—Ç–æ–≤–ª–µ–Ω–Ω–æ–µ –∑–Ω–∞—á–µ–Ω–∏–µ –¥–ª—è –≥—Ä–∞—Ñ–∏–∫–∞(–ø–æ
 890:Core/Src/GMG12864_lib.c **** 	if (*counter == 0) {
 2353              		.loc 1 890 6
 2354 0016 FB68     		ldr	r3, [r7, #12]
 2355 0018 1B78     		ldrb	r3, [r3]	@ zero_extendqisi2
 2356              		.loc 1 890 5
 2357 001a 002B     		cmp	r3, #0
 2358 001c 02D1     		bne	.L145
 891:Core/Src/GMG12864_lib.c **** 		array[0] = value;
 2359              		.loc 1 891 12
 2360 001e BB68     		ldr	r3, [r7, #8]
 2361 0020 BA79     		ldrb	r2, [r7, #6]
 2362 0022 1A70     		strb	r2, [r3]
 2363              	.L145:
 892:Core/Src/GMG12864_lib.c **** 	}
 893:Core/Src/GMG12864_lib.c **** 
 894:Core/Src/GMG12864_lib.c **** 	if (*counter) {
 2364              		.loc 1 894 6
 2365 0024 FB68     		ldr	r3, [r7, #12]
 2366 0026 1B78     		ldrb	r3, [r3]	@ zero_extendqisi2
 2367              		.loc 1 894 5
 2368 0028 002B     		cmp	r3, #0
 2369 002a 4DD0     		beq	.L146
 895:Core/Src/GMG12864_lib.c **** 		if (*counter <= size_array - 1) {
 2370              		.loc 1 895 7
 2371 002c FB68     		ldr	r3, [r7, #12]
 2372 002e 1B78     		ldrb	r3, [r3]	@ zero_extendqisi2
 2373              		.loc 1 895 6
 2374 0030 FA79     		ldrb	r2, [r7, #7]	@ zero_extendqisi2
 2375 0032 9A42     		cmp	r2, r3
 2376 0034 28D9     		bls	.L147
 2377              	.LBB17:
 896:Core/Src/GMG12864_lib.c **** 			for (int i = 0; i <= *counter; i++) {
 2378              		.loc 1 896 13
 2379 0036 0023     		movs	r3, #0
 2380 0038 7B61     		str	r3, [r7, #20]
 2381              		.loc 1 896 4
 2382 003a 1EE0     		b	.L148
 2383              	.L151:
 897:Core/Src/GMG12864_lib.c **** 				if (i == *counter) {
 2384              		.loc 1 897 14
 2385 003c FB68     		ldr	r3, [r7, #12]
 2386 003e 1B78     		ldrb	r3, [r3]	@ zero_extendqisi2
 2387 0040 1A46     		mov	r2, r3
 2388              		.loc 1 897 8
 2389 0042 7B69     		ldr	r3, [r7, #20]
 2390 0044 9342     		cmp	r3, r2
 2391 0046 03D1     		bne	.L149
 898:Core/Src/GMG12864_lib.c **** 					array[0] = value;
 2392              		.loc 1 898 15
 2393 0048 BB68     		ldr	r3, [r7, #8]
 2394 004a BA79     		ldrb	r2, [r7, #6]
 2395 004c 1A70     		strb	r2, [r3]
ARM GAS  C:\Users\SOLDER~1\AppData\Local\Temp\ccg2RcbO.s 			page 65


 2396 004e 11E0     		b	.L150
 2397              	.L149:
 899:Core/Src/GMG12864_lib.c **** 				} else {
 900:Core/Src/GMG12864_lib.c **** 					array[*counter - i] = array[*counter - i - 1];
 2398              		.loc 1 900 34
 2399 0050 FB68     		ldr	r3, [r7, #12]
 2400 0052 1B78     		ldrb	r3, [r3]	@ zero_extendqisi2
 2401 0054 1A46     		mov	r2, r3
 2402              		.loc 1 900 43
 2403 0056 7B69     		ldr	r3, [r7, #20]
 2404 0058 D31A     		subs	r3, r2, r3
 2405              		.loc 1 900 33
 2406 005a 013B     		subs	r3, r3, #1
 2407 005c BA68     		ldr	r2, [r7, #8]
 2408 005e 1A44     		add	r2, r2, r3
 2409              		.loc 1 900 12
 2410 0060 FB68     		ldr	r3, [r7, #12]
 2411 0062 1B78     		ldrb	r3, [r3]	@ zero_extendqisi2
 2412 0064 1946     		mov	r1, r3
 2413              		.loc 1 900 21
 2414 0066 7B69     		ldr	r3, [r7, #20]
 2415 0068 CB1A     		subs	r3, r1, r3
 2416 006a 1946     		mov	r1, r3
 2417              		.loc 1 900 11
 2418 006c BB68     		ldr	r3, [r7, #8]
 2419 006e 0B44     		add	r3, r3, r1
 2420              		.loc 1 900 33
 2421 0070 1278     		ldrb	r2, [r2]	@ zero_extendqisi2
 2422              		.loc 1 900 26
 2423 0072 1A70     		strb	r2, [r3]
 2424              	.L150:
 896:Core/Src/GMG12864_lib.c **** 				if (i == *counter) {
 2425              		.loc 1 896 36 discriminator 2
 2426 0074 7B69     		ldr	r3, [r7, #20]
 2427 0076 0133     		adds	r3, r3, #1
 2428 0078 7B61     		str	r3, [r7, #20]
 2429              	.L148:
 896:Core/Src/GMG12864_lib.c **** 				if (i == *counter) {
 2430              		.loc 1 896 25 discriminator 1
 2431 007a FB68     		ldr	r3, [r7, #12]
 2432 007c 1B78     		ldrb	r3, [r3]	@ zero_extendqisi2
 2433 007e 1A46     		mov	r2, r3
 896:Core/Src/GMG12864_lib.c **** 				if (i == *counter) {
 2434              		.loc 1 896 4 discriminator 1
 2435 0080 7B69     		ldr	r3, [r7, #20]
 2436 0082 9342     		cmp	r3, r2
 2437 0084 DADD     		ble	.L151
 2438 0086 1FE0     		b	.L146
 2439              	.L147:
 2440              	.LBE17:
 901:Core/Src/GMG12864_lib.c **** 				}
 902:Core/Src/GMG12864_lib.c **** 			}
 903:Core/Src/GMG12864_lib.c **** 		} else if (*counter > size_array - 1) {
 2441              		.loc 1 903 14
 2442 0088 FB68     		ldr	r3, [r7, #12]
 2443 008a 1B78     		ldrb	r3, [r3]	@ zero_extendqisi2
 2444              		.loc 1 903 13
ARM GAS  C:\Users\SOLDER~1\AppData\Local\Temp\ccg2RcbO.s 			page 66


 2445 008c FA79     		ldrb	r2, [r7, #7]	@ zero_extendqisi2
 2446 008e 9A42     		cmp	r2, r3
 2447 0090 1AD8     		bhi	.L146
 2448              	.LBB18:
 904:Core/Src/GMG12864_lib.c **** 			for (int i = size_array - 1; i >= 0; i--) {
 2449              		.loc 1 904 28
 2450 0092 FB79     		ldrb	r3, [r7, #7]	@ zero_extendqisi2
 2451              		.loc 1 904 13
 2452 0094 013B     		subs	r3, r3, #1
 2453 0096 3B61     		str	r3, [r7, #16]
 2454              		.loc 1 904 4
 2455 0098 13E0     		b	.L152
 2456              	.L154:
 905:Core/Src/GMG12864_lib.c **** 				array[i] = array[i - 1];
 2457              		.loc 1 905 21
 2458 009a 3B69     		ldr	r3, [r7, #16]
 2459 009c 013B     		subs	r3, r3, #1
 2460 009e BA68     		ldr	r2, [r7, #8]
 2461 00a0 1A44     		add	r2, r2, r3
 2462              		.loc 1 905 10
 2463 00a2 3B69     		ldr	r3, [r7, #16]
 2464 00a4 B968     		ldr	r1, [r7, #8]
 2465 00a6 0B44     		add	r3, r3, r1
 2466              		.loc 1 905 21
 2467 00a8 1278     		ldrb	r2, [r2]	@ zero_extendqisi2
 2468              		.loc 1 905 14
 2469 00aa 1A70     		strb	r2, [r3]
 906:Core/Src/GMG12864_lib.c **** 				if (i == 0) {
 2470              		.loc 1 906 8
 2471 00ac 3B69     		ldr	r3, [r7, #16]
 2472 00ae 002B     		cmp	r3, #0
 2473 00b0 04D1     		bne	.L153
 907:Core/Src/GMG12864_lib.c **** 					array[i] = value;
 2474              		.loc 1 907 11
 2475 00b2 3B69     		ldr	r3, [r7, #16]
 2476 00b4 BA68     		ldr	r2, [r7, #8]
 2477 00b6 1344     		add	r3, r3, r2
 2478              		.loc 1 907 15
 2479 00b8 BA79     		ldrb	r2, [r7, #6]
 2480 00ba 1A70     		strb	r2, [r3]
 2481              	.L153:
 904:Core/Src/GMG12864_lib.c **** 				array[i] = array[i - 1];
 2482              		.loc 1 904 42 discriminator 2
 2483 00bc 3B69     		ldr	r3, [r7, #16]
 2484 00be 013B     		subs	r3, r3, #1
 2485 00c0 3B61     		str	r3, [r7, #16]
 2486              	.L152:
 904:Core/Src/GMG12864_lib.c **** 				array[i] = array[i - 1];
 2487              		.loc 1 904 4 discriminator 1
 2488 00c2 3B69     		ldr	r3, [r7, #16]
 2489 00c4 002B     		cmp	r3, #0
 2490 00c6 E8DA     		bge	.L154
 2491              	.L146:
 2492              	.LBE18:
 908:Core/Src/GMG12864_lib.c **** 				}
 909:Core/Src/GMG12864_lib.c **** 			}
 910:Core/Src/GMG12864_lib.c **** 		}
ARM GAS  C:\Users\SOLDER~1\AppData\Local\Temp\ccg2RcbO.s 			page 67


 911:Core/Src/GMG12864_lib.c **** 
 912:Core/Src/GMG12864_lib.c **** 	}
 913:Core/Src/GMG12864_lib.c **** 	(*counter)++;
 2493              		.loc 1 913 3
 2494 00c8 FB68     		ldr	r3, [r7, #12]
 2495 00ca 1B78     		ldrb	r3, [r3]	@ zero_extendqisi2
 2496              		.loc 1 913 12
 2497 00cc 0133     		adds	r3, r3, #1
 2498 00ce DAB2     		uxtb	r2, r3
 2499 00d0 FB68     		ldr	r3, [r7, #12]
 2500 00d2 1A70     		strb	r2, [r3]
 914:Core/Src/GMG12864_lib.c **** 	if (*counter == 250) {
 2501              		.loc 1 914 6
 2502 00d4 FB68     		ldr	r3, [r7, #12]
 2503 00d6 1B78     		ldrb	r3, [r3]	@ zero_extendqisi2
 2504              		.loc 1 914 5
 2505 00d8 FA2B     		cmp	r3, #250
 2506 00da 02D1     		bne	.L156
 915:Core/Src/GMG12864_lib.c **** 		*counter = 128; //–ó–∞—â–∏—Ç–∞ –æ—Ç –ø–µ—Ä–µ–ø–æ–ª–Ω–µ–Ω–∏—è, –∏–Ω–∞—á–µ –≥—Ä–∞—Ñ–∏–∫ –±—É–¥–µ—Ç 
 2507              		.loc 1 915 12
 2508 00dc FB68     		ldr	r3, [r7, #12]
 2509 00de 8022     		movs	r2, #128
 2510 00e0 1A70     		strb	r2, [r3]
 2511              	.L156:
 916:Core/Src/GMG12864_lib.c **** 	}
 917:Core/Src/GMG12864_lib.c **** 
 918:Core/Src/GMG12864_lib.c **** }
 2512              		.loc 1 918 1
 2513 00e2 00BF     		nop
 2514 00e4 1C37     		adds	r7, r7, #28
 2515              		.cfi_def_cfa_offset 4
 2516 00e6 BD46     		mov	sp, r7
 2517              		.cfi_def_cfa_register 13
 2518              		@ sp needed
 2519 00e8 80BC     		pop	{r7}
 2520              		.cfi_restore 7
 2521              		.cfi_def_cfa_offset 0
 2522 00ea 7047     		bx	lr
 2523              		.cfi_endproc
 2524              	.LFE81:
 2526              		.section	.rodata
 2527              		.align	2
 2528              	.LC4:
 2529 004c 25342E31 		.ascii	"%4.1d\000"
 2529      6400
 2530 0052 0000     		.align	2
 2531              	.LC5:
 2532 0054 25322E31 		.ascii	"%2.1dc\320\265\320\272.\000"
 2532      6463D0B5 
 2532      D0BA2E00 
 2533              		.align	2
 2534              	.LC6:
 2535 0060 25322E31 		.ascii	"%2.1d\320\274\320\270\320\275.\000"
 2535      64D0BCD0 
 2535      B8D0BD2E 
 2535      00
 2536 006d 000000   		.align	2
ARM GAS  C:\Users\SOLDER~1\AppData\Local\Temp\ccg2RcbO.s 			page 68


 2537              	.LC7:
 2538 0070 25322E31 		.ascii	"%2.1d\321\207\320\260\321\201.\000"
 2538      64D187D0 
 2538      B0D1812E 
 2538      00
 2539              		.section	.text.GMG12864_Generate_a_Graph,"ax",%progbits
 2540              		.align	1
 2541              		.global	GMG12864_Generate_a_Graph
 2542              		.syntax unified
 2543              		.thumb
 2544              		.thumb_func
 2546              	GMG12864_Generate_a_Graph:
 2547              	.LFB82:
 919:Core/Src/GMG12864_lib.c **** /*-------------------–†–∞–±–æ—Ç–∞ —Å –º–∞—Å—Å–∏–≤–æ–º –¥–∞–Ω–Ω—ã—Ö---------------------*/
 920:Core/Src/GMG12864_lib.c **** 
 921:Core/Src/GMG12864_lib.c **** /*----------------------–§—É–Ω–∫—Ü–∏—è, —Ñ–æ—Ä–º–∏—Ä—É—é—â–∞—è –≤–µ—Å—å –≥—Ä–∞—Ñ–∏–∫, –∫–æ—Ç–æ—Ä—ã–
 922:Core/Src/GMG12864_lib.c **** void GMG12864_Generate_a_Graph(uint8_t *counter, uint8_t *array, uint8_t size_array, int y_min, int
 923:Core/Src/GMG12864_lib.c **** bool grid) {
 2548              		.loc 1 923 12
 2549              		.cfi_startproc
 2550              		@ args = 16, pretend = 0, frame = 64
 2551              		@ frame_needed = 1, uses_anonymous_args = 0
 2552 0000 90B5     		push	{r4, r7, lr}
 2553              		.cfi_def_cfa_offset 12
 2554              		.cfi_offset 4, -12
 2555              		.cfi_offset 7, -8
 2556              		.cfi_offset 14, -4
 2557 0002 93B0     		sub	sp, sp, #76
 2558              		.cfi_def_cfa_offset 88
 2559 0004 02AF     		add	r7, sp, #8
 2560              		.cfi_def_cfa 7, 80
 2561 0006 F860     		str	r0, [r7, #12]
 2562 0008 B960     		str	r1, [r7, #8]
 2563 000a 3B60     		str	r3, [r7]
 2564 000c 1346     		mov	r3, r2
 2565 000e FB71     		strb	r3, [r7, #7]
 924:Core/Src/GMG12864_lib.c **** /// –§—É–Ω–∫—Ü–∏—è, —Ñ–æ—Ä–º–∏—Ä—É—é—â–∞—è –≤–µ—Å—å –≥—Ä–∞—Ñ–∏–∫, –∫–æ—Ç–æ—Ä—ã–π –±—É–¥–µ—Ç –æ—Ç–æ–
 925:Core/Src/GMG12864_lib.c **** /// \param uint8_t *counter - —Å—á–µ—Ç—á–∏–∫ –∑–Ω–∞—á–µ–Ω–∏–π
 926:Core/Src/GMG12864_lib.c **** /// \param uint8_t *array - –º–∞—Å—Å–∏–≤, –∫—É–¥–∞ –º—ã –∑–∞–∫–∏–¥—ã–≤–∞–ª–∏ –∑–Ω–∞—á–µ–Ω–∏—è –¥–ª—
 927:Core/Src/GMG12864_lib.c **** /// \param uint8_t size_array - —Ä–∞–∑–º–µ—Ä –º–∞—Å—Å–∏–≤–∞, –∫—É–¥–∞ –º—ã –∑–∞–∫–∏–¥—ã–≤–∞–ª–∏ –∑–
 928:Core/Src/GMG12864_lib.c **** /// \param int y_min - –º–∏–Ω–∏–º–∞–ª—å–Ω–æ–µ –∑–Ω–∞—á–µ–Ω–∏–µ –ø–æ –æ—Å–∏ y
 929:Core/Src/GMG12864_lib.c **** /// \param int y_max - –º–∞–∫—Å–∏–º–∞–ª—å–Ω–æ–µ –∑–Ω–∞—á–µ–Ω–∏–µ –ø–æ –æ—Å–∏ y
 930:Core/Src/GMG12864_lib.c **** /// \param uint8_t x_grid_time - —Ä–∞–∑–º–µ—Ä –∫–ª–µ—Ç–∫–∏ –ø–æ x(–ù–∞–ø—Ä–∏–º–µ—Ä, –≥—Ä–∞—Ñ–∏–∫ –æ
 931:Core/Src/GMG12864_lib.c **** /// \param uint8_t time_interval - –∏–Ω—Ç–µ—Ä–≤–∞–ª –≤—Ä–µ–º–µ–Ω–∏. 0 - —Å–µ–∫., 1 - –º–∏–Ω., 2 = —
 932:Core/Src/GMG12864_lib.c **** /// \param bool grid - –°–µ—Ç–∫–∞ –≥—Ä–∞—Ñ—Ñ–∏–∫–∞. –≤–∫–ª = 1. –≤—ã–∫–ª = 0.
 933:Core/Src/GMG12864_lib.c **** 
 934:Core/Src/GMG12864_lib.c **** 	int y_minimum = y_min;
 2566              		.loc 1 934 6
 2567 0010 3B68     		ldr	r3, [r7]
 2568 0012 FB63     		str	r3, [r7, #60]
 935:Core/Src/GMG12864_lib.c **** 	int y_maximum = y_max;
 2569              		.loc 1 935 6
 2570 0014 3B6D     		ldr	r3, [r7, #80]
 2571 0016 BB63     		str	r3, [r7, #56]
 936:Core/Src/GMG12864_lib.c **** 	if (y_min < 0) {
 2572              		.loc 1 936 5
 2573 0018 3B68     		ldr	r3, [r7]
ARM GAS  C:\Users\SOLDER~1\AppData\Local\Temp\ccg2RcbO.s 			page 69


 2574 001a 002B     		cmp	r3, #0
 2575 001c 02DA     		bge	.L158
 937:Core/Src/GMG12864_lib.c **** 		y_minimum = y_minimum * (-1);
 2576              		.loc 1 937 13
 2577 001e FB6B     		ldr	r3, [r7, #60]
 2578 0020 5B42     		rsbs	r3, r3, #0
 2579 0022 FB63     		str	r3, [r7, #60]
 2580              	.L158:
 938:Core/Src/GMG12864_lib.c **** 	}
 939:Core/Src/GMG12864_lib.c **** 	if (y_max < 0) {
 2581              		.loc 1 939 5
 2582 0024 3B6D     		ldr	r3, [r7, #80]
 2583 0026 002B     		cmp	r3, #0
 2584 0028 02DA     		bge	.L159
 940:Core/Src/GMG12864_lib.c **** 		y_maximum = y_maximum * (-1);
 2585              		.loc 1 940 13
 2586 002a BB6B     		ldr	r3, [r7, #56]
 2587 002c 5B42     		rsbs	r3, r3, #0
 2588 002e BB63     		str	r3, [r7, #56]
 2589              	.L159:
 941:Core/Src/GMG12864_lib.c **** 	}
 942:Core/Src/GMG12864_lib.c **** 	int val_del = (y_minimum + y_maximum) / 5;
 2590              		.loc 1 942 27
 2591 0030 FA6B     		ldr	r2, [r7, #60]
 2592 0032 BB6B     		ldr	r3, [r7, #56]
 2593 0034 1344     		add	r3, r3, r2
 2594              		.loc 1 942 6
 2595 0036 C44A     		ldr	r2, .L186
 2596 0038 82FB0312 		smull	r1, r2, r2, r3
 2597 003c 5210     		asrs	r2, r2, #1
 2598 003e DB17     		asrs	r3, r3, #31
 2599 0040 D31A     		subs	r3, r2, r3
 2600 0042 7B62     		str	r3, [r7, #36]
 943:Core/Src/GMG12864_lib.c **** 	//printf("%d\r\n", val_del);
 944:Core/Src/GMG12864_lib.c **** 	char text[20] = { 0, };
 2601              		.loc 1 944 7
 2602 0044 0023     		movs	r3, #0
 2603 0046 3B61     		str	r3, [r7, #16]
 2604 0048 07F11403 		add	r3, r7, #20
 2605 004c 0022     		movs	r2, #0
 2606 004e 1A60     		str	r2, [r3]
 2607 0050 5A60     		str	r2, [r3, #4]
 2608 0052 9A60     		str	r2, [r3, #8]
 2609 0054 DA60     		str	r2, [r3, #12]
 945:Core/Src/GMG12864_lib.c **** 	GMG12864_Clean_Frame_buffer();
 2610              		.loc 1 945 2
 2611 0056 FFF7FEFF 		bl	GMG12864_Clean_Frame_buffer
 946:Core/Src/GMG12864_lib.c **** 	sprintf(text, "%4.1d", y_min);
 2612              		.loc 1 946 2
 2613 005a 07F11003 		add	r3, r7, #16
 2614 005e 3A68     		ldr	r2, [r7]
 2615 0060 BA49     		ldr	r1, .L186+4
 2616 0062 1846     		mov	r0, r3
 2617 0064 FFF7FEFF 		bl	sprintf
 947:Core/Src/GMG12864_lib.c **** 	GMG12864_Decode_UTF8(8, 48, 0, 0, text);
 2618              		.loc 1 947 2
 2619 0068 07F11003 		add	r3, r7, #16
ARM GAS  C:\Users\SOLDER~1\AppData\Local\Temp\ccg2RcbO.s 			page 70


 2620 006c 0093     		str	r3, [sp]
 2621 006e 0023     		movs	r3, #0
 2622 0070 0022     		movs	r2, #0
 2623 0072 3021     		movs	r1, #48
 2624 0074 0820     		movs	r0, #8
 2625 0076 FFF7FEFF 		bl	GMG12864_Decode_UTF8
 948:Core/Src/GMG12864_lib.c **** 	sprintf(text, "%4.1d", (y_min + val_del));
 2626              		.loc 1 948 2
 2627 007a 3A68     		ldr	r2, [r7]
 2628 007c 7B6A     		ldr	r3, [r7, #36]
 2629 007e 1A44     		add	r2, r2, r3
 2630 0080 07F11003 		add	r3, r7, #16
 2631 0084 B149     		ldr	r1, .L186+4
 2632 0086 1846     		mov	r0, r3
 2633 0088 FFF7FEFF 		bl	sprintf
 949:Core/Src/GMG12864_lib.c **** 	GMG12864_Decode_UTF8(8, 38, 0, 0, text);
 2634              		.loc 1 949 2
 2635 008c 07F11003 		add	r3, r7, #16
 2636 0090 0093     		str	r3, [sp]
 2637 0092 0023     		movs	r3, #0
 2638 0094 0022     		movs	r2, #0
 2639 0096 2621     		movs	r1, #38
 2640 0098 0820     		movs	r0, #8
 2641 009a FFF7FEFF 		bl	GMG12864_Decode_UTF8
 950:Core/Src/GMG12864_lib.c **** 	sprintf(text, "%4.1d", (y_min + val_del * 2));
 2642              		.loc 1 950 42
 2643 009e 7B6A     		ldr	r3, [r7, #36]
 2644 00a0 5A00     		lsls	r2, r3, #1
 2645              		.loc 1 950 2
 2646 00a2 3B68     		ldr	r3, [r7]
 2647 00a4 1A44     		add	r2, r2, r3
 2648 00a6 07F11003 		add	r3, r7, #16
 2649 00aa A849     		ldr	r1, .L186+4
 2650 00ac 1846     		mov	r0, r3
 2651 00ae FFF7FEFF 		bl	sprintf
 951:Core/Src/GMG12864_lib.c **** 	GMG12864_Decode_UTF8(8, 28, 0, 0, text);
 2652              		.loc 1 951 2
 2653 00b2 07F11003 		add	r3, r7, #16
 2654 00b6 0093     		str	r3, [sp]
 2655 00b8 0023     		movs	r3, #0
 2656 00ba 0022     		movs	r2, #0
 2657 00bc 1C21     		movs	r1, #28
 2658 00be 0820     		movs	r0, #8
 2659 00c0 FFF7FEFF 		bl	GMG12864_Decode_UTF8
 952:Core/Src/GMG12864_lib.c **** 	sprintf(text, "%4.1d", (y_min + val_del * 3));
 2660              		.loc 1 952 42
 2661 00c4 7A6A     		ldr	r2, [r7, #36]
 2662 00c6 1346     		mov	r3, r2
 2663 00c8 5B00     		lsls	r3, r3, #1
 2664 00ca 1A44     		add	r2, r2, r3
 2665              		.loc 1 952 2
 2666 00cc 3B68     		ldr	r3, [r7]
 2667 00ce 1A44     		add	r2, r2, r3
 2668 00d0 07F11003 		add	r3, r7, #16
 2669 00d4 9D49     		ldr	r1, .L186+4
 2670 00d6 1846     		mov	r0, r3
 2671 00d8 FFF7FEFF 		bl	sprintf
ARM GAS  C:\Users\SOLDER~1\AppData\Local\Temp\ccg2RcbO.s 			page 71


 953:Core/Src/GMG12864_lib.c **** 	GMG12864_Decode_UTF8(8, 18, 0, 0, text);
 2672              		.loc 1 953 2
 2673 00dc 07F11003 		add	r3, r7, #16
 2674 00e0 0093     		str	r3, [sp]
 2675 00e2 0023     		movs	r3, #0
 2676 00e4 0022     		movs	r2, #0
 2677 00e6 1221     		movs	r1, #18
 2678 00e8 0820     		movs	r0, #8
 2679 00ea FFF7FEFF 		bl	GMG12864_Decode_UTF8
 954:Core/Src/GMG12864_lib.c **** 	sprintf(text, "%4.1d", (y_min + val_del * 4));
 2680              		.loc 1 954 42
 2681 00ee 7B6A     		ldr	r3, [r7, #36]
 2682 00f0 9A00     		lsls	r2, r3, #2
 2683              		.loc 1 954 2
 2684 00f2 3B68     		ldr	r3, [r7]
 2685 00f4 1A44     		add	r2, r2, r3
 2686 00f6 07F11003 		add	r3, r7, #16
 2687 00fa 9449     		ldr	r1, .L186+4
 2688 00fc 1846     		mov	r0, r3
 2689 00fe FFF7FEFF 		bl	sprintf
 955:Core/Src/GMG12864_lib.c **** 	GMG12864_Decode_UTF8(8, 8, 0, 0, text);
 2690              		.loc 1 955 2
 2691 0102 07F11003 		add	r3, r7, #16
 2692 0106 0093     		str	r3, [sp]
 2693 0108 0023     		movs	r3, #0
 2694 010a 0022     		movs	r2, #0
 2695 010c 0821     		movs	r1, #8
 2696 010e 0820     		movs	r0, #8
 2697 0110 FFF7FEFF 		bl	GMG12864_Decode_UTF8
 956:Core/Src/GMG12864_lib.c **** 	sprintf(text, "%4.1d", y_max);
 2698              		.loc 1 956 2
 2699 0114 07F11003 		add	r3, r7, #16
 2700 0118 3A6D     		ldr	r2, [r7, #80]
 2701 011a 8C49     		ldr	r1, .L186+4
 2702 011c 1846     		mov	r0, r3
 2703 011e FFF7FEFF 		bl	sprintf
 957:Core/Src/GMG12864_lib.c **** 	GMG12864_Decode_UTF8(8, 0, 0, 0, text);
 2704              		.loc 1 957 2
 2705 0122 07F11003 		add	r3, r7, #16
 2706 0126 0093     		str	r3, [sp]
 2707 0128 0023     		movs	r3, #0
 2708 012a 0022     		movs	r2, #0
 2709 012c 0021     		movs	r1, #0
 2710 012e 0820     		movs	r0, #8
 2711 0130 FFF7FEFF 		bl	GMG12864_Decode_UTF8
 958:Core/Src/GMG12864_lib.c **** 
 959:Core/Src/GMG12864_lib.c **** 	if (time_interval == 0) {
 2712              		.loc 1 959 5
 2713 0134 97F85830 		ldrb	r3, [r7, #88]	@ zero_extendqisi2
 2714 0138 002B     		cmp	r3, #0
 2715 013a 08D1     		bne	.L160
 960:Core/Src/GMG12864_lib.c **** 		sprintf(text, "%2.1dc–µ–∫.", x_grid_time);
 2716              		.loc 1 960 3
 2717 013c 97F85420 		ldrb	r2, [r7, #84]	@ zero_extendqisi2
 2718 0140 07F11003 		add	r3, r7, #16
 2719 0144 8249     		ldr	r1, .L186+8
 2720 0146 1846     		mov	r0, r3
ARM GAS  C:\Users\SOLDER~1\AppData\Local\Temp\ccg2RcbO.s 			page 72


 2721 0148 FFF7FEFF 		bl	sprintf
 2722 014c 18E0     		b	.L161
 2723              	.L160:
 961:Core/Src/GMG12864_lib.c **** 	} else if (time_interval == 1) {
 2724              		.loc 1 961 12
 2725 014e 97F85830 		ldrb	r3, [r7, #88]	@ zero_extendqisi2
 2726 0152 012B     		cmp	r3, #1
 2727 0154 08D1     		bne	.L162
 962:Core/Src/GMG12864_lib.c **** 		sprintf(text, "%2.1d–º–∏–Ω.", x_grid_time);
 2728              		.loc 1 962 3
 2729 0156 97F85420 		ldrb	r2, [r7, #84]	@ zero_extendqisi2
 2730 015a 07F11003 		add	r3, r7, #16
 2731 015e 7D49     		ldr	r1, .L186+12
 2732 0160 1846     		mov	r0, r3
 2733 0162 FFF7FEFF 		bl	sprintf
 2734 0166 0BE0     		b	.L161
 2735              	.L162:
 963:Core/Src/GMG12864_lib.c **** 	} else if (time_interval == 2) {
 2736              		.loc 1 963 12
 2737 0168 97F85830 		ldrb	r3, [r7, #88]	@ zero_extendqisi2
 2738 016c 022B     		cmp	r3, #2
 2739 016e 07D1     		bne	.L161
 964:Core/Src/GMG12864_lib.c **** 		sprintf(text, "%2.1d—á–∞—Å.", x_grid_time);
 2740              		.loc 1 964 3
 2741 0170 97F85420 		ldrb	r2, [r7, #84]	@ zero_extendqisi2
 2742 0174 07F11003 		add	r3, r7, #16
 2743 0178 7749     		ldr	r1, .L186+16
 2744 017a 1846     		mov	r0, r3
 2745 017c FFF7FEFF 		bl	sprintf
 2746              	.L161:
 965:Core/Src/GMG12864_lib.c **** 	}
 966:Core/Src/GMG12864_lib.c **** 	GMG12864_Decode_UTF8(53, 57, 1, 0, text);
 2747              		.loc 1 966 2
 2748 0180 07F11003 		add	r3, r7, #16
 2749 0184 0093     		str	r3, [sp]
 2750 0186 0023     		movs	r3, #0
 2751 0188 0122     		movs	r2, #1
 2752 018a 3921     		movs	r1, #57
 2753 018c 3520     		movs	r0, #53
 2754 018e FFF7FEFF 		bl	GMG12864_Decode_UTF8
 967:Core/Src/GMG12864_lib.c **** 
 968:Core/Src/GMG12864_lib.c **** 	/*----------------–û—Å—å –∞—Å—Ü–∏—Å—Å, –æ—Å—å –æ—Ä–¥–∏–Ω–∞—Ç, —Ä–∞–∑–º–µ—Ç–∫–∞-----------------*/
 969:Core/Src/GMG12864_lib.c **** 
 970:Core/Src/GMG12864_lib.c **** 	GMG12864_Draw_line(27, 50, 127, 50, 1); //–æ—Å—å –∞–±—Å—Ü–∏—Å—Å
 2755              		.loc 1 970 2
 2756 0192 0123     		movs	r3, #1
 2757 0194 0093     		str	r3, [sp]
 2758 0196 3223     		movs	r3, #50
 2759 0198 7F22     		movs	r2, #127
 2760 019a 3221     		movs	r1, #50
 2761 019c 1B20     		movs	r0, #27
 2762 019e FFF7FEFF 		bl	GMG12864_Draw_line
 2763              	.LBB19:
 971:Core/Src/GMG12864_lib.c **** 	for (uint8_t i = 27; i <= 77; i = i + 10) {
 2764              		.loc 1 971 15
 2765 01a2 1B23     		movs	r3, #27
 2766 01a4 87F83730 		strb	r3, [r7, #55]
ARM GAS  C:\Users\SOLDER~1\AppData\Local\Temp\ccg2RcbO.s 			page 73


 2767              		.loc 1 971 2
 2768 01a8 0EE0     		b	.L163
 2769              	.L164:
 972:Core/Src/GMG12864_lib.c **** 		GMG12864_Draw_line(i, 51, i, 52, 1);
 2770              		.loc 1 972 3 discriminator 3
 2771 01aa 97F83720 		ldrb	r2, [r7, #55]	@ zero_extendqisi2
 2772 01ae 97F83700 		ldrb	r0, [r7, #55]	@ zero_extendqisi2
 2773 01b2 0123     		movs	r3, #1
 2774 01b4 0093     		str	r3, [sp]
 2775 01b6 3423     		movs	r3, #52
 2776 01b8 3321     		movs	r1, #51
 2777 01ba FFF7FEFF 		bl	GMG12864_Draw_line
 971:Core/Src/GMG12864_lib.c **** 	for (uint8_t i = 27; i <= 77; i = i + 10) {
 2778              		.loc 1 971 34 discriminator 3
 2779 01be 97F83730 		ldrb	r3, [r7, #55]
 2780 01c2 0A33     		adds	r3, r3, #10
 2781 01c4 87F83730 		strb	r3, [r7, #55]
 2782              	.L163:
 971:Core/Src/GMG12864_lib.c **** 	for (uint8_t i = 27; i <= 77; i = i + 10) {
 2783              		.loc 1 971 2 discriminator 1
 2784 01c8 97F83730 		ldrb	r3, [r7, #55]	@ zero_extendqisi2
 2785 01cc 4D2B     		cmp	r3, #77
 2786 01ce ECD9     		bls	.L164
 2787              	.LBE19:
 2788              	.LBB20:
 973:Core/Src/GMG12864_lib.c **** 	}
 974:Core/Src/GMG12864_lib.c **** 	for (uint8_t i = 87; i <= 127; i = i + 10) {
 2789              		.loc 1 974 15
 2790 01d0 5723     		movs	r3, #87
 2791 01d2 87F83630 		strb	r3, [r7, #54]
 2792              		.loc 1 974 2
 2793 01d6 0CE0     		b	.L165
 2794              	.L166:
 975:Core/Src/GMG12864_lib.c **** 		GMG12864_Draw_pixel(i, 51, 1);
 2795              		.loc 1 975 3 discriminator 3
 2796 01d8 97F83630 		ldrb	r3, [r7, #54]	@ zero_extendqisi2
 2797 01dc 1BB2     		sxth	r3, r3
 2798 01de 0122     		movs	r2, #1
 2799 01e0 3321     		movs	r1, #51
 2800 01e2 1846     		mov	r0, r3
 2801 01e4 FFF7FEFF 		bl	GMG12864_Draw_pixel
 974:Core/Src/GMG12864_lib.c **** 		GMG12864_Draw_pixel(i, 51, 1);
 2802              		.loc 1 974 35 discriminator 3
 2803 01e8 97F83630 		ldrb	r3, [r7, #54]
 2804 01ec 0A33     		adds	r3, r3, #10
 2805 01ee 87F83630 		strb	r3, [r7, #54]
 2806              	.L165:
 974:Core/Src/GMG12864_lib.c **** 		GMG12864_Draw_pixel(i, 51, 1);
 2807              		.loc 1 974 25 discriminator 1
 2808 01f2 97F93630 		ldrsb	r3, [r7, #54]
 974:Core/Src/GMG12864_lib.c **** 		GMG12864_Draw_pixel(i, 51, 1);
 2809              		.loc 1 974 2 discriminator 1
 2810 01f6 002B     		cmp	r3, #0
 2811 01f8 EEDA     		bge	.L166
 2812              	.LBE20:
 976:Core/Src/GMG12864_lib.c **** 	}
 977:Core/Src/GMG12864_lib.c **** 
ARM GAS  C:\Users\SOLDER~1\AppData\Local\Temp\ccg2RcbO.s 			page 74


 978:Core/Src/GMG12864_lib.c **** 	GMG12864_Draw_line(27, 0, 27, 50, 1); //–æ—Å—å –æ—Ä–¥–∏–Ω–∞—Ç
 2813              		.loc 1 978 2
 2814 01fa 0123     		movs	r3, #1
 2815 01fc 0093     		str	r3, [sp]
 2816 01fe 3223     		movs	r3, #50
 2817 0200 1B22     		movs	r2, #27
 2818 0202 0021     		movs	r1, #0
 2819 0204 1B20     		movs	r0, #27
 2820 0206 FFF7FEFF 		bl	GMG12864_Draw_line
 2821              	.LBB21:
 979:Core/Src/GMG12864_lib.c **** 	for (uint8_t i = 0; i <= 50; i = i + 10) {
 2822              		.loc 1 979 15
 2823 020a 0023     		movs	r3, #0
 2824 020c 87F83530 		strb	r3, [r7, #53]
 2825              		.loc 1 979 2
 2826 0210 0EE0     		b	.L167
 2827              	.L168:
 980:Core/Src/GMG12864_lib.c **** 		GMG12864_Draw_line(25, i, 27, i, 1);
 2828              		.loc 1 980 3 discriminator 3
 2829 0212 97F83530 		ldrb	r3, [r7, #53]	@ zero_extendqisi2
 2830 0216 97F83510 		ldrb	r1, [r7, #53]	@ zero_extendqisi2
 2831 021a 0122     		movs	r2, #1
 2832 021c 0092     		str	r2, [sp]
 2833 021e 1B22     		movs	r2, #27
 2834 0220 1920     		movs	r0, #25
 2835 0222 FFF7FEFF 		bl	GMG12864_Draw_line
 979:Core/Src/GMG12864_lib.c **** 	for (uint8_t i = 0; i <= 50; i = i + 10) {
 2836              		.loc 1 979 33 discriminator 3
 2837 0226 97F83530 		ldrb	r3, [r7, #53]
 2838 022a 0A33     		adds	r3, r3, #10
 2839 022c 87F83530 		strb	r3, [r7, #53]
 2840              	.L167:
 979:Core/Src/GMG12864_lib.c **** 	for (uint8_t i = 0; i <= 50; i = i + 10) {
 2841              		.loc 1 979 2 discriminator 1
 2842 0230 97F83530 		ldrb	r3, [r7, #53]	@ zero_extendqisi2
 2843 0234 322B     		cmp	r3, #50
 2844 0236 ECD9     		bls	.L168
 2845              	.LBE21:
 981:Core/Src/GMG12864_lib.c **** 	}
 982:Core/Src/GMG12864_lib.c **** 
 983:Core/Src/GMG12864_lib.c **** 	GMG12864_Draw_line(57, 53, 57, 55, 1); //–ü–æ–ª–æ—Å–∞ –ø–æ —Ö –ª–µ–≤–∞—è
 2846              		.loc 1 983 2
 2847 0238 0123     		movs	r3, #1
 2848 023a 0093     		str	r3, [sp]
 2849 023c 3723     		movs	r3, #55
 2850 023e 3922     		movs	r2, #57
 2851 0240 3521     		movs	r1, #53
 2852 0242 3920     		movs	r0, #57
 2853 0244 FFF7FEFF 		bl	GMG12864_Draw_line
 984:Core/Src/GMG12864_lib.c **** 	GMG12864_Draw_line(67, 53, 67, 55, 1); //–ü–æ–ª–æ—Å–∞ –ø–æ —Ö –ø—Ä–∞–≤–∞—è
 2854              		.loc 1 984 2
 2855 0248 0123     		movs	r3, #1
 2856 024a 0093     		str	r3, [sp]
 2857 024c 3723     		movs	r3, #55
 2858 024e 4322     		movs	r2, #67
 2859 0250 3521     		movs	r1, #53
 2860 0252 4320     		movs	r0, #67
ARM GAS  C:\Users\SOLDER~1\AppData\Local\Temp\ccg2RcbO.s 			page 75


 2861 0254 FFF7FEFF 		bl	GMG12864_Draw_line
 985:Core/Src/GMG12864_lib.c **** 	GMG12864_Draw_line(52, 54, 72, 54, 1); //–ü–æ–ª–æ—Å–∞ –º–µ–∂–¥—É –¥–µ–ª–µ–Ω–∏—è–º–∏ –ø–æ —Ö
 2862              		.loc 1 985 2
 2863 0258 0123     		movs	r3, #1
 2864 025a 0093     		str	r3, [sp]
 2865 025c 3623     		movs	r3, #54
 2866 025e 4822     		movs	r2, #72
 2867 0260 3621     		movs	r1, #54
 2868 0262 3420     		movs	r0, #52
 2869 0264 FFF7FEFF 		bl	GMG12864_Draw_line
 986:Core/Src/GMG12864_lib.c **** 	GMG12864_Draw_line(54, 52, 54, 56, 1); //–õ–µ–≤–∞—è —Å—Ç—Ä–µ–ª–∫–∞ –Ω–∞ –¥–µ–ª–µ–Ω–∏–µ
 2870              		.loc 1 986 2
 2871 0268 0123     		movs	r3, #1
 2872 026a 0093     		str	r3, [sp]
 2873 026c 3823     		movs	r3, #56
 2874 026e 3622     		movs	r2, #54
 2875 0270 3421     		movs	r1, #52
 2876 0272 3620     		movs	r0, #54
 2877 0274 FFF7FEFF 		bl	GMG12864_Draw_line
 987:Core/Src/GMG12864_lib.c **** 	GMG12864_Draw_line(55, 53, 55, 55, 1); //–õ–µ–≤–∞—è —Å—Ç—Ä–µ–ª–∫–∞ –Ω–∞ –¥–µ–ª–µ–Ω–∏–µ
 2878              		.loc 1 987 2
 2879 0278 0123     		movs	r3, #1
 2880 027a 0093     		str	r3, [sp]
 2881 027c 3723     		movs	r3, #55
 2882 027e 3722     		movs	r2, #55
 2883 0280 3521     		movs	r1, #53
 2884 0282 3720     		movs	r0, #55
 2885 0284 FFF7FEFF 		bl	GMG12864_Draw_line
 988:Core/Src/GMG12864_lib.c **** 	GMG12864_Draw_line(69, 53, 69, 55, 1); //–ü—Ä–∞–≤–∞—è —Å—Ç—Ä–µ–ª–∫–∞ –Ω–∞ –¥–µ–ª–µ–Ω–∏–µ
 2886              		.loc 1 988 2
 2887 0288 0123     		movs	r3, #1
 2888 028a 0093     		str	r3, [sp]
 2889 028c 3723     		movs	r3, #55
 2890 028e 4522     		movs	r2, #69
 2891 0290 3521     		movs	r1, #53
 2892 0292 4520     		movs	r0, #69
 2893 0294 FFF7FEFF 		bl	GMG12864_Draw_line
 989:Core/Src/GMG12864_lib.c **** 	GMG12864_Draw_line(70, 52, 70, 56, 1); //–ü—Ä–∞–≤–∞—è —Å—Ç—Ä–µ–ª–∫–∞ –Ω–∞ –¥–µ–ª–µ–Ω–∏–µ
 2894              		.loc 1 989 2
 2895 0298 0123     		movs	r3, #1
 2896 029a 0093     		str	r3, [sp]
 2897 029c 3823     		movs	r3, #56
 2898 029e 4622     		movs	r2, #70
 2899 02a0 3421     		movs	r1, #52
 2900 02a2 4620     		movs	r0, #70
 2901 02a4 FFF7FEFF 		bl	GMG12864_Draw_line
 990:Core/Src/GMG12864_lib.c **** 	GMG12864_Draw_line(127, 53, 127, 57, 1); //–û—Ç–º–µ—Ç–∫–∞ "—Å–µ–π—á–∞—Å"
 2902              		.loc 1 990 2
 2903 02a8 0123     		movs	r3, #1
 2904 02aa 0093     		str	r3, [sp]
 2905 02ac 3923     		movs	r3, #57
 2906 02ae 7F22     		movs	r2, #127
 2907 02b0 3521     		movs	r1, #53
 2908 02b2 7F20     		movs	r0, #127
 2909 02b4 FFF7FEFF 		bl	GMG12864_Draw_line
 991:Core/Src/GMG12864_lib.c **** 	GMG12864_Draw_line(122, 55, 127, 55, 1); //–°—Ç—Ä–µ–ª–∫–∞ –Ω–∞ "—Å–µ–π—á–∞—Å"
 2910              		.loc 1 991 2
ARM GAS  C:\Users\SOLDER~1\AppData\Local\Temp\ccg2RcbO.s 			page 76


 2911 02b8 0123     		movs	r3, #1
 2912 02ba 0093     		str	r3, [sp]
 2913 02bc 3723     		movs	r3, #55
 2914 02be 7F22     		movs	r2, #127
 2915 02c0 3721     		movs	r1, #55
 2916 02c2 7A20     		movs	r0, #122
 2917 02c4 FFF7FEFF 		bl	GMG12864_Draw_line
 992:Core/Src/GMG12864_lib.c **** 	GMG12864_Draw_line(124, 53, 124, 57, 1); //–°—Ç—Ä–µ–ª–∫–∞ –Ω–∞ "—Å–µ–π—á–∞—Å"
 2918              		.loc 1 992 2
 2919 02c8 0123     		movs	r3, #1
 2920 02ca 0093     		str	r3, [sp]
 2921 02cc 3923     		movs	r3, #57
 2922 02ce 7C22     		movs	r2, #124
 2923 02d0 3521     		movs	r1, #53
 2924 02d2 7C20     		movs	r0, #124
 2925 02d4 FFF7FEFF 		bl	GMG12864_Draw_line
 993:Core/Src/GMG12864_lib.c **** 	GMG12864_Draw_line(125, 54, 125, 56, 1); //–°—Ç—Ä–µ–ª–∫–∞ –Ω–∞ "—Å–µ–π—á–∞—Å"
 2926              		.loc 1 993 2
 2927 02d8 0123     		movs	r3, #1
 2928 02da 0093     		str	r3, [sp]
 2929 02dc 3823     		movs	r3, #56
 2930 02de 7D22     		movs	r2, #125
 2931 02e0 3621     		movs	r1, #54
 2932 02e2 7D20     		movs	r0, #125
 2933 02e4 FFF7FEFF 		bl	GMG12864_Draw_line
 994:Core/Src/GMG12864_lib.c **** 
 995:Core/Src/GMG12864_lib.c **** 	/*----------------–û—Å—å –∞—Å—Ü–∏—Å—Å, –æ—Å—å –æ—Ä–¥–∏–Ω–∞—Ç, —Ä–∞–∑–º–µ—Ç–∫–∞-----------------*/
 996:Core/Src/GMG12864_lib.c **** 
 997:Core/Src/GMG12864_lib.c **** 	/*--------------------------–†–∞–∑–º–µ—Ç–∫–∞ —Å–µ—Ç–∫–∏-------------------------*/
 998:Core/Src/GMG12864_lib.c **** 	if (grid) {
 2934              		.loc 1 998 5
 2935 02e8 97F85C30 		ldrb	r3, [r7, #92]	@ zero_extendqisi2
 2936 02ec 002B     		cmp	r3, #0
 2937 02ee 51D0     		beq	.L169
 2938              	.LBB22:
 999:Core/Src/GMG12864_lib.c **** 		for (uint8_t y = 0; y <= 40; y = y + 10) {
 2939              		.loc 1 999 16
 2940 02f0 0023     		movs	r3, #0
 2941 02f2 87F83430 		strb	r3, [r7, #52]
 2942              		.loc 1 999 3
 2943 02f6 1BE0     		b	.L170
 2944              	.L173:
 2945              	.LBB23:
1000:Core/Src/GMG12864_lib.c **** 			for (uint8_t x = 27; x <= 127; x = x + 2) {
 2946              		.loc 1 1000 17
 2947 02f8 1B23     		movs	r3, #27
 2948 02fa 87F83330 		strb	r3, [r7, #51]
 2949              		.loc 1 1000 4
 2950 02fe 0EE0     		b	.L171
 2951              	.L172:
1001:Core/Src/GMG12864_lib.c **** 				GMG12864_Draw_pixel(x, y, 1);
 2952              		.loc 1 1001 5 discriminator 3
 2953 0300 97F83330 		ldrb	r3, [r7, #51]	@ zero_extendqisi2
 2954 0304 1BB2     		sxth	r3, r3
 2955 0306 97F83420 		ldrb	r2, [r7, #52]	@ zero_extendqisi2
 2956 030a 11B2     		sxth	r1, r2
 2957 030c 0122     		movs	r2, #1
ARM GAS  C:\Users\SOLDER~1\AppData\Local\Temp\ccg2RcbO.s 			page 77


 2958 030e 1846     		mov	r0, r3
 2959 0310 FFF7FEFF 		bl	GMG12864_Draw_pixel
1000:Core/Src/GMG12864_lib.c **** 			for (uint8_t x = 27; x <= 127; x = x + 2) {
 2960              		.loc 1 1000 37 discriminator 3
 2961 0314 97F83330 		ldrb	r3, [r7, #51]
 2962 0318 0233     		adds	r3, r3, #2
 2963 031a 87F83330 		strb	r3, [r7, #51]
 2964              	.L171:
1000:Core/Src/GMG12864_lib.c **** 			for (uint8_t x = 27; x <= 127; x = x + 2) {
 2965              		.loc 1 1000 27 discriminator 1
 2966 031e 97F93330 		ldrsb	r3, [r7, #51]
1000:Core/Src/GMG12864_lib.c **** 			for (uint8_t x = 27; x <= 127; x = x + 2) {
 2967              		.loc 1 1000 4 discriminator 1
 2968 0322 002B     		cmp	r3, #0
 2969 0324 ECDA     		bge	.L172
 2970              	.LBE23:
 999:Core/Src/GMG12864_lib.c **** 		for (uint8_t y = 0; y <= 40; y = y + 10) {
 2971              		.loc 1 999 34 discriminator 2
 2972 0326 97F83430 		ldrb	r3, [r7, #52]
 2973 032a 0A33     		adds	r3, r3, #10
 2974 032c 87F83430 		strb	r3, [r7, #52]
 2975              	.L170:
 999:Core/Src/GMG12864_lib.c **** 		for (uint8_t y = 0; y <= 40; y = y + 10) {
 2976              		.loc 1 999 3 discriminator 1
 2977 0330 97F83430 		ldrb	r3, [r7, #52]	@ zero_extendqisi2
 2978 0334 282B     		cmp	r3, #40
 2979 0336 DFD9     		bls	.L173
 2980              	.LBE22:
 2981              	.LBB24:
1002:Core/Src/GMG12864_lib.c **** 			}
1003:Core/Src/GMG12864_lib.c **** 		}
1004:Core/Src/GMG12864_lib.c **** 
1005:Core/Src/GMG12864_lib.c **** 		for (uint8_t x = 27; x <= 127; x = x + 10) {
 2982              		.loc 1 1005 16
 2983 0338 1B23     		movs	r3, #27
 2984 033a 87F83230 		strb	r3, [r7, #50]
 2985              		.loc 1 1005 3
 2986 033e 25E0     		b	.L174
 2987              	.L177:
 2988              	.LBB25:
1006:Core/Src/GMG12864_lib.c **** 			for (uint8_t y = 0; y <= 50; y = y + 2) {
 2989              		.loc 1 1006 17
 2990 0340 0023     		movs	r3, #0
 2991 0342 87F83130 		strb	r3, [r7, #49]
 2992              		.loc 1 1006 4
 2993 0346 18E0     		b	.L175
 2994              	.L187:
 2995              		.align	2
 2996              	.L186:
 2997 0348 67666666 		.word	1717986919
 2998 034c 4C000000 		.word	.LC4
 2999 0350 54000000 		.word	.LC5
 3000 0354 60000000 		.word	.LC6
 3001 0358 70000000 		.word	.LC7
 3002              	.L176:
1007:Core/Src/GMG12864_lib.c **** 				GMG12864_Draw_pixel(x, y, 1);
 3003              		.loc 1 1007 5 discriminator 3
ARM GAS  C:\Users\SOLDER~1\AppData\Local\Temp\ccg2RcbO.s 			page 78


 3004 035c 97F83230 		ldrb	r3, [r7, #50]	@ zero_extendqisi2
 3005 0360 1BB2     		sxth	r3, r3
 3006 0362 97F83120 		ldrb	r2, [r7, #49]	@ zero_extendqisi2
 3007 0366 11B2     		sxth	r1, r2
 3008 0368 0122     		movs	r2, #1
 3009 036a 1846     		mov	r0, r3
 3010 036c FFF7FEFF 		bl	GMG12864_Draw_pixel
1006:Core/Src/GMG12864_lib.c **** 			for (uint8_t y = 0; y <= 50; y = y + 2) {
 3011              		.loc 1 1006 35 discriminator 3
 3012 0370 97F83130 		ldrb	r3, [r7, #49]
 3013 0374 0233     		adds	r3, r3, #2
 3014 0376 87F83130 		strb	r3, [r7, #49]
 3015              	.L175:
1006:Core/Src/GMG12864_lib.c **** 			for (uint8_t y = 0; y <= 50; y = y + 2) {
 3016              		.loc 1 1006 4 discriminator 1
 3017 037a 97F83130 		ldrb	r3, [r7, #49]	@ zero_extendqisi2
 3018 037e 322B     		cmp	r3, #50
 3019 0380 ECD9     		bls	.L176
 3020              	.LBE25:
1005:Core/Src/GMG12864_lib.c **** 			for (uint8_t y = 0; y <= 50; y = y + 2) {
 3021              		.loc 1 1005 36 discriminator 2
 3022 0382 97F83230 		ldrb	r3, [r7, #50]
 3023 0386 0A33     		adds	r3, r3, #10
 3024 0388 87F83230 		strb	r3, [r7, #50]
 3025              	.L174:
1005:Core/Src/GMG12864_lib.c **** 			for (uint8_t y = 0; y <= 50; y = y + 2) {
 3026              		.loc 1 1005 26 discriminator 1
 3027 038c 97F93230 		ldrsb	r3, [r7, #50]
1005:Core/Src/GMG12864_lib.c **** 			for (uint8_t y = 0; y <= 50; y = y + 2) {
 3028              		.loc 1 1005 3 discriminator 1
 3029 0390 002B     		cmp	r3, #0
 3030 0392 D5DA     		bge	.L177
 3031              	.L169:
 3032              	.LBE24:
1008:Core/Src/GMG12864_lib.c **** 			}
1009:Core/Src/GMG12864_lib.c **** 		}
1010:Core/Src/GMG12864_lib.c **** 	}
1011:Core/Src/GMG12864_lib.c **** 	/*--------------------------–†–∞–∑–º–µ—Ç–∫–∞ —Å–µ—Ç–∫–∏-------------------------*/
1012:Core/Src/GMG12864_lib.c **** 
1013:Core/Src/GMG12864_lib.c **** 	if (*counter <= size_array) {
 3033              		.loc 1 1013 6
 3034 0394 FB68     		ldr	r3, [r7, #12]
 3035 0396 1B78     		ldrb	r3, [r3]	@ zero_extendqisi2
 3036              		.loc 1 1013 5
 3037 0398 FA79     		ldrb	r2, [r7, #7]	@ zero_extendqisi2
 3038 039a 9A42     		cmp	r2, r3
 3039 039c 07D3     		bcc	.L178
1014:Core/Src/GMG12864_lib.c **** 		if (*counter == size_array) {
 3040              		.loc 1 1014 7
 3041 039e FB68     		ldr	r3, [r7, #12]
 3042 03a0 1B78     		ldrb	r3, [r3]	@ zero_extendqisi2
 3043              		.loc 1 1014 6
 3044 03a2 FA79     		ldrb	r2, [r7, #7]	@ zero_extendqisi2
 3045 03a4 9A42     		cmp	r2, r3
 3046 03a6 02D1     		bne	.L178
1015:Core/Src/GMG12864_lib.c **** 			array_is_full = true;
 3047              		.loc 1 1015 18
ARM GAS  C:\Users\SOLDER~1\AppData\Local\Temp\ccg2RcbO.s 			page 79


 3048 03a8 2F4B     		ldr	r3, .L188
 3049 03aa 0122     		movs	r2, #1
 3050 03ac 1A70     		strb	r2, [r3]
 3051              	.L178:
1016:Core/Src/GMG12864_lib.c **** 		}
1017:Core/Src/GMG12864_lib.c **** 	}
1018:Core/Src/GMG12864_lib.c **** 
1019:Core/Src/GMG12864_lib.c **** 	if (array_is_full) {
 3052              		.loc 1 1019 6
 3053 03ae 2E4B     		ldr	r3, .L188
 3054 03b0 1B78     		ldrb	r3, [r3]	@ zero_extendqisi2
 3055              		.loc 1 1019 5
 3056 03b2 002B     		cmp	r3, #0
 3057 03b4 29D0     		beq	.L179
 3058              	.LBB26:
1020:Core/Src/GMG12864_lib.c **** 		for (int i = 0; i < size_array - 1; i++) {
 3059              		.loc 1 1020 12
 3060 03b6 0023     		movs	r3, #0
 3061 03b8 FB62     		str	r3, [r7, #44]
 3062              		.loc 1 1020 3
 3063 03ba 20E0     		b	.L180
 3064              	.L181:
1021:Core/Src/GMG12864_lib.c **** 			//GMG12864_Draw_pixel(127 - i, 50 - array[i], 1); //–†–∏—Å—É–µ–º —Ç–æ—á–∫–∞–º–∏
1022:Core/Src/GMG12864_lib.c **** 			GMG12864_Draw_line(127 - (i + 1), 50 - array[i + 1], 127 - i, 50 - array[i], 1); //–†–∏—Å—É–µ–º 
 3065              		.loc 1 1022 4 discriminator 3
 3066 03bc FB6A     		ldr	r3, [r7, #44]
 3067 03be DBB2     		uxtb	r3, r3
 3068 03c0 C3F17E03 		rsb	r3, r3, #126
 3069 03c4 D8B2     		uxtb	r0, r3
 3070              		.loc 1 1022 48 discriminator 3
 3071 03c6 FB6A     		ldr	r3, [r7, #44]
 3072 03c8 0133     		adds	r3, r3, #1
 3073 03ca BA68     		ldr	r2, [r7, #8]
 3074 03cc 1344     		add	r3, r3, r2
 3075 03ce 1B78     		ldrb	r3, [r3]	@ zero_extendqisi2
 3076              		.loc 1 1022 4 discriminator 3
 3077 03d0 C3F13203 		rsb	r3, r3, #50
 3078 03d4 D9B2     		uxtb	r1, r3
 3079 03d6 FB6A     		ldr	r3, [r7, #44]
 3080 03d8 DBB2     		uxtb	r3, r3
 3081 03da C3F17F03 		rsb	r3, r3, #127
 3082 03de DCB2     		uxtb	r4, r3
 3083              		.loc 1 1022 76 discriminator 3
 3084 03e0 FB6A     		ldr	r3, [r7, #44]
 3085 03e2 BA68     		ldr	r2, [r7, #8]
 3086 03e4 1344     		add	r3, r3, r2
 3087 03e6 1B78     		ldrb	r3, [r3]	@ zero_extendqisi2
 3088              		.loc 1 1022 4 discriminator 3
 3089 03e8 C3F13203 		rsb	r3, r3, #50
 3090 03ec DBB2     		uxtb	r3, r3
 3091 03ee 0122     		movs	r2, #1
 3092 03f0 0092     		str	r2, [sp]
 3093 03f2 2246     		mov	r2, r4
 3094 03f4 FFF7FEFF 		bl	GMG12864_Draw_line
1020:Core/Src/GMG12864_lib.c **** 		for (int i = 0; i < size_array - 1; i++) {
 3095              		.loc 1 1020 40 discriminator 3
 3096 03f8 FB6A     		ldr	r3, [r7, #44]
ARM GAS  C:\Users\SOLDER~1\AppData\Local\Temp\ccg2RcbO.s 			page 80


 3097 03fa 0133     		adds	r3, r3, #1
 3098 03fc FB62     		str	r3, [r7, #44]
 3099              	.L180:
1020:Core/Src/GMG12864_lib.c **** 		for (int i = 0; i < size_array - 1; i++) {
 3100              		.loc 1 1020 34 discriminator 1
 3101 03fe FB79     		ldrb	r3, [r7, #7]	@ zero_extendqisi2
 3102 0400 013B     		subs	r3, r3, #1
1020:Core/Src/GMG12864_lib.c **** 		for (int i = 0; i < size_array - 1; i++) {
 3103              		.loc 1 1020 3 discriminator 1
 3104 0402 FA6A     		ldr	r2, [r7, #44]
 3105 0404 9A42     		cmp	r2, r3
 3106 0406 D9DB     		blt	.L181
 3107              	.LBE26:
1023:Core/Src/GMG12864_lib.c **** 			//GMG12864_Draw_line(127-i, 50, 127-i, 50 - array[i], 1);//–ó–∞–∫—Ä–∞—à–∏–≤–∞–µ–º –æ–±–ª–∞—Å—Ç—å
1024:Core/Src/GMG12864_lib.c **** 
1025:Core/Src/GMG12864_lib.c **** 		}
1026:Core/Src/GMG12864_lib.c **** 	} else {
1027:Core/Src/GMG12864_lib.c **** 		for (int i = 0; i < *counter; i++) {
1028:Core/Src/GMG12864_lib.c **** 			//GMG12864_Draw_pixel(127 - i, 50 - array[i], 1); //–†–∏—Å—É–µ–º —Ç–æ—á–∫–∞–º–∏
1029:Core/Src/GMG12864_lib.c **** 			GMG12864_Draw_line(127 - (i + 1), 50 - array[i + 1], 127 - i, 50 - array[i], 1); //–†–∏—Å—É–µ–º 
1030:Core/Src/GMG12864_lib.c **** 			//GMG12864_Draw_line(127-i, 50, 127-i, 50 - array[i], 1);//–ó–∞–∫—Ä–∞—à–∏–≤–∞–µ–º –æ–±–ª–∞—Å—Ç—å
1031:Core/Src/GMG12864_lib.c **** 
1032:Core/Src/GMG12864_lib.c **** 		}
1033:Core/Src/GMG12864_lib.c **** 	}
1034:Core/Src/GMG12864_lib.c **** }
 3108              		.loc 1 1034 1
 3109 0408 29E0     		b	.L185
 3110              	.L179:
 3111              	.LBB27:
1027:Core/Src/GMG12864_lib.c **** 			//GMG12864_Draw_pixel(127 - i, 50 - array[i], 1); //–†–∏—Å—É–µ–º —Ç–æ—á–∫–∞–º–∏
 3112              		.loc 1 1027 12
 3113 040a 0023     		movs	r3, #0
 3114 040c BB62     		str	r3, [r7, #40]
1027:Core/Src/GMG12864_lib.c **** 			//GMG12864_Draw_pixel(127 - i, 50 - array[i], 1); //–†–∏—Å—É–µ–º —Ç–æ—á–∫–∞–º–∏
 3115              		.loc 1 1027 3
 3116 040e 20E0     		b	.L183
 3117              	.L184:
1029:Core/Src/GMG12864_lib.c **** 			//GMG12864_Draw_line(127-i, 50, 127-i, 50 - array[i], 1);//–ó–∞–∫—Ä–∞—à–∏–≤–∞–µ–º –æ–±–ª–∞—Å—Ç—å
 3118              		.loc 1 1029 4 discriminator 3
 3119 0410 BB6A     		ldr	r3, [r7, #40]
 3120 0412 DBB2     		uxtb	r3, r3
 3121 0414 C3F17E03 		rsb	r3, r3, #126
 3122 0418 D8B2     		uxtb	r0, r3
1029:Core/Src/GMG12864_lib.c **** 			//GMG12864_Draw_line(127-i, 50, 127-i, 50 - array[i], 1);//–ó–∞–∫—Ä–∞—à–∏–≤–∞–µ–º –æ–±–ª–∞—Å—Ç—å
 3123              		.loc 1 1029 48 discriminator 3
 3124 041a BB6A     		ldr	r3, [r7, #40]
 3125 041c 0133     		adds	r3, r3, #1
 3126 041e BA68     		ldr	r2, [r7, #8]
 3127 0420 1344     		add	r3, r3, r2
 3128 0422 1B78     		ldrb	r3, [r3]	@ zero_extendqisi2
1029:Core/Src/GMG12864_lib.c **** 			//GMG12864_Draw_line(127-i, 50, 127-i, 50 - array[i], 1);//–ó–∞–∫—Ä–∞—à–∏–≤–∞–µ–º –æ–±–ª–∞—Å—Ç—å
 3129              		.loc 1 1029 4 discriminator 3
 3130 0424 C3F13203 		rsb	r3, r3, #50
 3131 0428 D9B2     		uxtb	r1, r3
 3132 042a BB6A     		ldr	r3, [r7, #40]
 3133 042c DBB2     		uxtb	r3, r3
 3134 042e C3F17F03 		rsb	r3, r3, #127
ARM GAS  C:\Users\SOLDER~1\AppData\Local\Temp\ccg2RcbO.s 			page 81


 3135 0432 DCB2     		uxtb	r4, r3
1029:Core/Src/GMG12864_lib.c **** 			//GMG12864_Draw_line(127-i, 50, 127-i, 50 - array[i], 1);//–ó–∞–∫—Ä–∞—à–∏–≤–∞–µ–º –æ–±–ª–∞—Å—Ç—å
 3136              		.loc 1 1029 76 discriminator 3
 3137 0434 BB6A     		ldr	r3, [r7, #40]
 3138 0436 BA68     		ldr	r2, [r7, #8]
 3139 0438 1344     		add	r3, r3, r2
 3140 043a 1B78     		ldrb	r3, [r3]	@ zero_extendqisi2
1029:Core/Src/GMG12864_lib.c **** 			//GMG12864_Draw_line(127-i, 50, 127-i, 50 - array[i], 1);//–ó–∞–∫—Ä–∞—à–∏–≤–∞–µ–º –æ–±–ª–∞—Å—Ç—å
 3141              		.loc 1 1029 4 discriminator 3
 3142 043c C3F13203 		rsb	r3, r3, #50
 3143 0440 DBB2     		uxtb	r3, r3
 3144 0442 0122     		movs	r2, #1
 3145 0444 0092     		str	r2, [sp]
 3146 0446 2246     		mov	r2, r4
 3147 0448 FFF7FEFF 		bl	GMG12864_Draw_line
1027:Core/Src/GMG12864_lib.c **** 			//GMG12864_Draw_pixel(127 - i, 50 - array[i], 1); //–†–∏—Å—É–µ–º —Ç–æ—á–∫–∞–º–∏
 3148              		.loc 1 1027 34 discriminator 3
 3149 044c BB6A     		ldr	r3, [r7, #40]
 3150 044e 0133     		adds	r3, r3, #1
 3151 0450 BB62     		str	r3, [r7, #40]
 3152              	.L183:
1027:Core/Src/GMG12864_lib.c **** 			//GMG12864_Draw_pixel(127 - i, 50 - array[i], 1); //–†–∏—Å—É–µ–º —Ç–æ—á–∫–∞–º–∏
 3153              		.loc 1 1027 23 discriminator 1
 3154 0452 FB68     		ldr	r3, [r7, #12]
 3155 0454 1B78     		ldrb	r3, [r3]	@ zero_extendqisi2
 3156 0456 1A46     		mov	r2, r3
1027:Core/Src/GMG12864_lib.c **** 			//GMG12864_Draw_pixel(127 - i, 50 - array[i], 1); //–†–∏—Å—É–µ–º —Ç–æ—á–∫–∞–º–∏
 3157              		.loc 1 1027 3 discriminator 1
 3158 0458 BB6A     		ldr	r3, [r7, #40]
 3159 045a 9342     		cmp	r3, r2
 3160 045c D8DB     		blt	.L184
 3161              	.L185:
 3162              	.LBE27:
 3163              		.loc 1 1034 1
 3164 045e 00BF     		nop
 3165 0460 4437     		adds	r7, r7, #68
 3166              		.cfi_def_cfa_offset 12
 3167 0462 BD46     		mov	sp, r7
 3168              		.cfi_def_cfa_register 13
 3169              		@ sp needed
 3170 0464 90BD     		pop	{r4, r7, pc}
 3171              	.L189:
 3172 0466 00BF     		.align	2
 3173              	.L188:
 3174 0468 00000000 		.word	array_is_full
 3175              		.cfi_endproc
 3176              	.LFE82:
 3178              		.section	.text.GMG12864_Draw_line,"ax",%progbits
 3179              		.align	1
 3180              		.global	GMG12864_Draw_line
 3181              		.syntax unified
 3182              		.thumb
 3183              		.thumb_func
 3185              	GMG12864_Draw_line:
 3186              	.LFB83:
1035:Core/Src/GMG12864_lib.c **** /*----------------------–§—É–Ω–∫—Ü–∏—è, —Ñ–æ—Ä–º–∏—Ä—É—é—â–∞—è –≤–µ—Å—å –≥—Ä–∞—Ñ–∏–∫, –∫–æ—Ç–æ—Ä—ã–
1036:Core/Src/GMG12864_lib.c **** 
ARM GAS  C:\Users\SOLDER~1\AppData\Local\Temp\ccg2RcbO.s 			page 82


1037:Core/Src/GMG12864_lib.c **** /********************************–†–ê–ë–û–¢–ê –° –ì–ï–û–ú–ï–¢–†–ò–ß–ï–°–ö–ò–ú–ò –§–ò–ì–£–†–ê–ú–ò***
1038:Core/Src/GMG12864_lib.c **** 
1039:Core/Src/GMG12864_lib.c **** void GMG12864_Draw_line(uint8_t x_start, uint8_t y_start, uint8_t x_end, uint8_t y_end, uint8_t col
 3187              		.loc 1 1039 104
 3188              		.cfi_startproc
 3189              		@ args = 4, pretend = 0, frame = 32
 3190              		@ frame_needed = 1, uses_anonymous_args = 0
 3191 0000 90B5     		push	{r4, r7, lr}
 3192              		.cfi_def_cfa_offset 12
 3193              		.cfi_offset 4, -12
 3194              		.cfi_offset 7, -8
 3195              		.cfi_offset 14, -4
 3196 0002 89B0     		sub	sp, sp, #36
 3197              		.cfi_def_cfa_offset 48
 3198 0004 00AF     		add	r7, sp, #0
 3199              		.cfi_def_cfa_register 7
 3200 0006 0446     		mov	r4, r0
 3201 0008 0846     		mov	r0, r1
 3202 000a 1146     		mov	r1, r2
 3203 000c 1A46     		mov	r2, r3
 3204 000e 2346     		mov	r3, r4
 3205 0010 FB71     		strb	r3, [r7, #7]
 3206 0012 0346     		mov	r3, r0
 3207 0014 BB71     		strb	r3, [r7, #6]
 3208 0016 0B46     		mov	r3, r1
 3209 0018 7B71     		strb	r3, [r7, #5]
 3210 001a 1346     		mov	r3, r2
 3211 001c 3B71     		strb	r3, [r7, #4]
1040:Core/Src/GMG12864_lib.c **** 	int dx = (x_end >= x_start) ? x_end - x_start : x_start - x_end;
 3212              		.loc 1 1040 48
 3213 001e 7A79     		ldrb	r2, [r7, #5]	@ zero_extendqisi2
 3214 0020 FB79     		ldrb	r3, [r7, #7]	@ zero_extendqisi2
 3215 0022 9A42     		cmp	r2, r3
 3216 0024 03D3     		bcc	.L191
 3217              		.loc 1 1040 38 discriminator 1
 3218 0026 7A79     		ldrb	r2, [r7, #5]	@ zero_extendqisi2
 3219 0028 FB79     		ldrb	r3, [r7, #7]	@ zero_extendqisi2
 3220              		.loc 1 1040 48 discriminator 1
 3221 002a D31A     		subs	r3, r2, r3
 3222 002c 02E0     		b	.L192
 3223              	.L191:
 3224              		.loc 1 1040 58 discriminator 2
 3225 002e FA79     		ldrb	r2, [r7, #7]	@ zero_extendqisi2
 3226 0030 7B79     		ldrb	r3, [r7, #5]	@ zero_extendqisi2
 3227              		.loc 1 1040 48 discriminator 2
 3228 0032 D31A     		subs	r3, r2, r3
 3229              	.L192:
 3230              		.loc 1 1040 6 discriminator 4
 3231 0034 BB61     		str	r3, [r7, #24]
1041:Core/Src/GMG12864_lib.c **** 	int dy = (y_end >= y_start) ? y_end - y_start : y_start - y_end;
 3232              		.loc 1 1041 48 discriminator 4
 3233 0036 3A79     		ldrb	r2, [r7, #4]	@ zero_extendqisi2
 3234 0038 BB79     		ldrb	r3, [r7, #6]	@ zero_extendqisi2
 3235 003a 9A42     		cmp	r2, r3
 3236 003c 03D3     		bcc	.L193
 3237              		.loc 1 1041 38 discriminator 1
 3238 003e 3A79     		ldrb	r2, [r7, #4]	@ zero_extendqisi2
ARM GAS  C:\Users\SOLDER~1\AppData\Local\Temp\ccg2RcbO.s 			page 83


 3239 0040 BB79     		ldrb	r3, [r7, #6]	@ zero_extendqisi2
 3240              		.loc 1 1041 48 discriminator 1
 3241 0042 D31A     		subs	r3, r2, r3
 3242 0044 02E0     		b	.L194
 3243              	.L193:
 3244              		.loc 1 1041 58 discriminator 2
 3245 0046 BA79     		ldrb	r2, [r7, #6]	@ zero_extendqisi2
 3246 0048 3B79     		ldrb	r3, [r7, #4]	@ zero_extendqisi2
 3247              		.loc 1 1041 48 discriminator 2
 3248 004a D31A     		subs	r3, r2, r3
 3249              	.L194:
 3250              		.loc 1 1041 6 discriminator 4
 3251 004c 7B61     		str	r3, [r7, #20]
1042:Core/Src/GMG12864_lib.c **** 	int sx = (x_start < x_end) ? 1 : -1;
 3252              		.loc 1 1042 33 discriminator 4
 3253 004e FA79     		ldrb	r2, [r7, #7]	@ zero_extendqisi2
 3254 0050 7B79     		ldrb	r3, [r7, #5]	@ zero_extendqisi2
 3255 0052 9A42     		cmp	r2, r3
 3256 0054 01D2     		bcs	.L195
 3257              		.loc 1 1042 33 is_stmt 0 discriminator 1
 3258 0056 0123     		movs	r3, #1
 3259 0058 01E0     		b	.L196
 3260              	.L195:
 3261              		.loc 1 1042 33 discriminator 2
 3262 005a 4FF0FF33 		mov	r3, #-1
 3263              	.L196:
 3264              		.loc 1 1042 6 is_stmt 1 discriminator 4
 3265 005e 3B61     		str	r3, [r7, #16]
1043:Core/Src/GMG12864_lib.c **** 	int sy = (y_start < y_end) ? 1 : -1;
 3266              		.loc 1 1043 33 discriminator 4
 3267 0060 BA79     		ldrb	r2, [r7, #6]	@ zero_extendqisi2
 3268 0062 3B79     		ldrb	r3, [r7, #4]	@ zero_extendqisi2
 3269 0064 9A42     		cmp	r2, r3
 3270 0066 01D2     		bcs	.L197
 3271              		.loc 1 1043 33 is_stmt 0 discriminator 1
 3272 0068 0123     		movs	r3, #1
 3273 006a 01E0     		b	.L198
 3274              	.L197:
 3275              		.loc 1 1043 33 discriminator 2
 3276 006c 4FF0FF33 		mov	r3, #-1
 3277              	.L198:
 3278              		.loc 1 1043 6 is_stmt 1 discriminator 4
 3279 0070 FB60     		str	r3, [r7, #12]
1044:Core/Src/GMG12864_lib.c **** 	int err = dx - dy;
 3280              		.loc 1 1044 6 discriminator 4
 3281 0072 BA69     		ldr	r2, [r7, #24]
 3282 0074 7B69     		ldr	r3, [r7, #20]
 3283 0076 D31A     		subs	r3, r2, r3
 3284 0078 FB61     		str	r3, [r7, #28]
 3285              	.L203:
 3286              	.LBB28:
1045:Core/Src/GMG12864_lib.c **** 
1046:Core/Src/GMG12864_lib.c **** 	for (;;) {
1047:Core/Src/GMG12864_lib.c **** 		GMG12864_Draw_pixel(x_start, y_start, color);
 3287              		.loc 1 1047 3
 3288 007a FB79     		ldrb	r3, [r7, #7]	@ zero_extendqisi2
 3289 007c 1BB2     		sxth	r3, r3
ARM GAS  C:\Users\SOLDER~1\AppData\Local\Temp\ccg2RcbO.s 			page 84


 3290 007e BA79     		ldrb	r2, [r7, #6]	@ zero_extendqisi2
 3291 0080 11B2     		sxth	r1, r2
 3292 0082 97F83020 		ldrb	r2, [r7, #48]	@ zero_extendqisi2
 3293 0086 1846     		mov	r0, r3
 3294 0088 FFF7FEFF 		bl	GMG12864_Draw_pixel
1048:Core/Src/GMG12864_lib.c **** 		if (x_start == x_end && y_start == y_end)
 3295              		.loc 1 1048 6
 3296 008c FA79     		ldrb	r2, [r7, #7]	@ zero_extendqisi2
 3297 008e 7B79     		ldrb	r3, [r7, #5]	@ zero_extendqisi2
 3298 0090 9A42     		cmp	r2, r3
 3299 0092 03D1     		bne	.L199
 3300              		.loc 1 1048 24 discriminator 1
 3301 0094 BA79     		ldrb	r2, [r7, #6]	@ zero_extendqisi2
 3302 0096 3B79     		ldrb	r3, [r7, #4]	@ zero_extendqisi2
 3303 0098 9A42     		cmp	r2, r3
 3304 009a 1ED0     		beq	.L205
 3305              	.L199:
1049:Core/Src/GMG12864_lib.c **** 			break;
1050:Core/Src/GMG12864_lib.c **** 		int e2 = err + err;
 3306              		.loc 1 1050 7
 3307 009c FB69     		ldr	r3, [r7, #28]
 3308 009e 5B00     		lsls	r3, r3, #1
 3309 00a0 BB60     		str	r3, [r7, #8]
1051:Core/Src/GMG12864_lib.c **** 		if (e2 > -dy) {
 3310              		.loc 1 1051 12
 3311 00a2 7B69     		ldr	r3, [r7, #20]
 3312 00a4 5B42     		rsbs	r3, r3, #0
 3313              		.loc 1 1051 6
 3314 00a6 BA68     		ldr	r2, [r7, #8]
 3315 00a8 9A42     		cmp	r2, r3
 3316 00aa 08DD     		ble	.L201
1052:Core/Src/GMG12864_lib.c **** 			err -= dy;
 3317              		.loc 1 1052 8
 3318 00ac FA69     		ldr	r2, [r7, #28]
 3319 00ae 7B69     		ldr	r3, [r7, #20]
 3320 00b0 D31A     		subs	r3, r2, r3
 3321 00b2 FB61     		str	r3, [r7, #28]
1053:Core/Src/GMG12864_lib.c **** 			x_start += sx;
 3322              		.loc 1 1053 12
 3323 00b4 3B69     		ldr	r3, [r7, #16]
 3324 00b6 DAB2     		uxtb	r2, r3
 3325 00b8 FB79     		ldrb	r3, [r7, #7]
 3326 00ba 1344     		add	r3, r3, r2
 3327 00bc FB71     		strb	r3, [r7, #7]
 3328              	.L201:
1054:Core/Src/GMG12864_lib.c **** 		}
1055:Core/Src/GMG12864_lib.c **** 		if (e2 < dx) {
 3329              		.loc 1 1055 6
 3330 00be BA68     		ldr	r2, [r7, #8]
 3331 00c0 BB69     		ldr	r3, [r7, #24]
 3332 00c2 9A42     		cmp	r2, r3
 3333 00c4 D9DA     		bge	.L203
1056:Core/Src/GMG12864_lib.c **** 			err += dx;
 3334              		.loc 1 1056 8
 3335 00c6 FA69     		ldr	r2, [r7, #28]
 3336 00c8 BB69     		ldr	r3, [r7, #24]
 3337 00ca 1344     		add	r3, r3, r2
ARM GAS  C:\Users\SOLDER~1\AppData\Local\Temp\ccg2RcbO.s 			page 85


 3338 00cc FB61     		str	r3, [r7, #28]
1057:Core/Src/GMG12864_lib.c **** 			y_start += sy;
 3339              		.loc 1 1057 12
 3340 00ce FB68     		ldr	r3, [r7, #12]
 3341 00d0 DAB2     		uxtb	r2, r3
 3342 00d2 BB79     		ldrb	r3, [r7, #6]
 3343 00d4 1344     		add	r3, r3, r2
 3344 00d6 BB71     		strb	r3, [r7, #6]
 3345              	.LBE28:
1046:Core/Src/GMG12864_lib.c **** 		GMG12864_Draw_pixel(x_start, y_start, color);
 3346              		.loc 1 1046 11
 3347 00d8 CFE7     		b	.L203
 3348              	.L205:
 3349              	.LBB29:
1049:Core/Src/GMG12864_lib.c **** 		int e2 = err + err;
 3350              		.loc 1 1049 4
 3351 00da 00BF     		nop
 3352              	.LBE29:
1058:Core/Src/GMG12864_lib.c **** 		}
1059:Core/Src/GMG12864_lib.c **** 	}
1060:Core/Src/GMG12864_lib.c **** }
 3353              		.loc 1 1060 1
 3354 00dc 00BF     		nop
 3355 00de 2437     		adds	r7, r7, #36
 3356              		.cfi_def_cfa_offset 12
 3357 00e0 BD46     		mov	sp, r7
 3358              		.cfi_def_cfa_register 13
 3359              		@ sp needed
 3360 00e2 90BD     		pop	{r4, r7, pc}
 3361              		.cfi_endproc
 3362              	.LFE83:
 3364              		.section	.text.GMG12864_Draw_rectangle,"ax",%progbits
 3365              		.align	1
 3366              		.global	GMG12864_Draw_rectangle
 3367              		.syntax unified
 3368              		.thumb
 3369              		.thumb_func
 3371              	GMG12864_Draw_rectangle:
 3372              	.LFB84:
1061:Core/Src/GMG12864_lib.c **** 
1062:Core/Src/GMG12864_lib.c **** /*--------------------------------–í—ã–≤–µ—Å—Ç–∏ –ø—É—Å—Ç–æ—Ç–µ–ª—ã–π –ø—Ä—è–º–æ—É–≥–æ–ª—å–Ω–∏–∫---
1063:Core/Src/GMG12864_lib.c **** void GMG12864_Draw_rectangle(uint16_t x, uint16_t y, uint16_t width, uint16_t height, uint8_t color
 3373              		.loc 1 1063 102
 3374              		.cfi_startproc
 3375              		@ args = 4, pretend = 0, frame = 8
 3376              		@ frame_needed = 1, uses_anonymous_args = 0
 3377 0000 90B5     		push	{r4, r7, lr}
 3378              		.cfi_def_cfa_offset 12
 3379              		.cfi_offset 4, -12
 3380              		.cfi_offset 7, -8
 3381              		.cfi_offset 14, -4
 3382 0002 85B0     		sub	sp, sp, #20
 3383              		.cfi_def_cfa_offset 32
 3384 0004 02AF     		add	r7, sp, #8
 3385              		.cfi_def_cfa 7, 24
 3386 0006 0446     		mov	r4, r0
 3387 0008 0846     		mov	r0, r1
ARM GAS  C:\Users\SOLDER~1\AppData\Local\Temp\ccg2RcbO.s 			page 86


 3388 000a 1146     		mov	r1, r2
 3389 000c 1A46     		mov	r2, r3
 3390 000e 2346     		mov	r3, r4	@ movhi
 3391 0010 FB80     		strh	r3, [r7, #6]	@ movhi
 3392 0012 0346     		mov	r3, r0	@ movhi
 3393 0014 BB80     		strh	r3, [r7, #4]	@ movhi
 3394 0016 0B46     		mov	r3, r1	@ movhi
 3395 0018 7B80     		strh	r3, [r7, #2]	@ movhi
 3396 001a 1346     		mov	r3, r2	@ movhi
 3397 001c 3B80     		strh	r3, [r7]	@ movhi
1064:Core/Src/GMG12864_lib.c **** /// –í—ã–≤–µ—Å—Ç–∏ –ø—É—Å—Ç–æ—Ç–µ–ª—ã–π –ø—Ä—è–º–æ—É–≥–æ–ª—å–Ω–∏–∫
1065:Core/Src/GMG12864_lib.c **** /// \param x - –Ω–∞—á–∞–ª—å–Ω–∞—è —Ç–æ—á–∫–∞ –ø–æ –æ—Å–∏ "x"
1066:Core/Src/GMG12864_lib.c **** /// \param y - –Ω–∞—á–∞–ª—å–Ω–∞—è —Ç–æ—á–∫–∞ –ø–æ –æ—Å–∏ "y"
1067:Core/Src/GMG12864_lib.c **** /// \param width - —à–∏—Ä–∏–Ω–∞ –ø—Ä—è–º–æ—É–≥–æ–ª—å–Ω–∏–∫–∞
1068:Core/Src/GMG12864_lib.c **** /// \param height - –≤—ã—Å–æ—Ç–∞ –ø—Ä—è–º–æ—É–≥–æ–ª—å–Ω–∏–∫–∞
1069:Core/Src/GMG12864_lib.c **** 
1070:Core/Src/GMG12864_lib.c **** 	/*–ü—Ä–æ–≤–µ—Ä–∫–∞ —à–∏—Ä–∏–Ω—ã –∏ –≤—ã—Å–æ—Ç—ã*/
1071:Core/Src/GMG12864_lib.c **** 	if ((x + width) >= GMG12864_width) {
 3398              		.loc 1 1071 9
 3399 001e FA88     		ldrh	r2, [r7, #6]
 3400 0020 7B88     		ldrh	r3, [r7, #2]
 3401 0022 1344     		add	r3, r3, r2
 3402              		.loc 1 1071 18
 3403 0024 384A     		ldr	r2, .L209
 3404 0026 1278     		ldrb	r2, [r2]	@ zero_extendqisi2
 3405              		.loc 1 1071 5
 3406 0028 9342     		cmp	r3, r2
 3407 002a 05DB     		blt	.L207
1072:Core/Src/GMG12864_lib.c **** 		width = GMG12864_width - x;
 3408              		.loc 1 1072 26
 3409 002c 364B     		ldr	r3, .L209
 3410 002e 1B78     		ldrb	r3, [r3]	@ zero_extendqisi2
 3411 0030 9AB2     		uxth	r2, r3
 3412              		.loc 1 1072 9
 3413 0032 FB88     		ldrh	r3, [r7, #6]	@ movhi
 3414 0034 D31A     		subs	r3, r2, r3
 3415 0036 7B80     		strh	r3, [r7, #2]	@ movhi
 3416              	.L207:
1073:Core/Src/GMG12864_lib.c **** 	}
1074:Core/Src/GMG12864_lib.c **** 	if ((y + height) >= GMG12864_height) {
 3417              		.loc 1 1074 9
 3418 0038 BA88     		ldrh	r2, [r7, #4]
 3419 003a 3B88     		ldrh	r3, [r7]
 3420 003c 1344     		add	r3, r3, r2
 3421              		.loc 1 1074 19
 3422 003e 334A     		ldr	r2, .L209+4
 3423 0040 1278     		ldrb	r2, [r2]	@ zero_extendqisi2
 3424              		.loc 1 1074 5
 3425 0042 9342     		cmp	r3, r2
 3426 0044 05DB     		blt	.L208
1075:Core/Src/GMG12864_lib.c **** 		height = GMG12864_height - y;
 3427              		.loc 1 1075 28
 3428 0046 314B     		ldr	r3, .L209+4
 3429 0048 1B78     		ldrb	r3, [r3]	@ zero_extendqisi2
 3430 004a 9AB2     		uxth	r2, r3
 3431              		.loc 1 1075 10
 3432 004c BB88     		ldrh	r3, [r7, #4]	@ movhi
ARM GAS  C:\Users\SOLDER~1\AppData\Local\Temp\ccg2RcbO.s 			page 87


 3433 004e D31A     		subs	r3, r2, r3
 3434 0050 3B80     		strh	r3, [r7]	@ movhi
 3435              	.L208:
1076:Core/Src/GMG12864_lib.c **** 	}
1077:Core/Src/GMG12864_lib.c **** 
1078:Core/Src/GMG12864_lib.c **** 	/*–†–∏—Å—É–µ–º –ª–∏–Ω–∏–∏*/
1079:Core/Src/GMG12864_lib.c **** 	GMG12864_Draw_line(x, y, x + width, y, color); /*–í–µ—Ä—Ö –ø—Ä—è–º–æ—É–≥–æ–ª—å–Ω–∏–∫–∞*/
 3436              		.loc 1 1079 2
 3437 0052 FB88     		ldrh	r3, [r7, #6]	@ movhi
 3438 0054 D8B2     		uxtb	r0, r3
 3439 0056 BB88     		ldrh	r3, [r7, #4]	@ movhi
 3440 0058 D9B2     		uxtb	r1, r3
 3441 005a FB88     		ldrh	r3, [r7, #6]	@ movhi
 3442 005c DAB2     		uxtb	r2, r3
 3443 005e 7B88     		ldrh	r3, [r7, #2]	@ movhi
 3444 0060 DBB2     		uxtb	r3, r3
 3445 0062 1344     		add	r3, r3, r2
 3446 0064 DAB2     		uxtb	r2, r3
 3447 0066 BB88     		ldrh	r3, [r7, #4]	@ movhi
 3448 0068 DCB2     		uxtb	r4, r3
 3449 006a 3B7E     		ldrb	r3, [r7, #24]	@ zero_extendqisi2
 3450 006c 0093     		str	r3, [sp]
 3451 006e 2346     		mov	r3, r4
 3452 0070 FFF7FEFF 		bl	GMG12864_Draw_line
1080:Core/Src/GMG12864_lib.c **** 	GMG12864_Draw_line(x, y + height, x + width, y + height, color); /*–ù–∏–∑ –ø—Ä—è–º–æ—É–≥–æ–ª—å–Ω–∏
 3453              		.loc 1 1080 2
 3454 0074 FB88     		ldrh	r3, [r7, #6]	@ movhi
 3455 0076 D8B2     		uxtb	r0, r3
 3456 0078 BB88     		ldrh	r3, [r7, #4]	@ movhi
 3457 007a DAB2     		uxtb	r2, r3
 3458 007c 3B88     		ldrh	r3, [r7]	@ movhi
 3459 007e DBB2     		uxtb	r3, r3
 3460 0080 1344     		add	r3, r3, r2
 3461 0082 D9B2     		uxtb	r1, r3
 3462 0084 FB88     		ldrh	r3, [r7, #6]	@ movhi
 3463 0086 DAB2     		uxtb	r2, r3
 3464 0088 7B88     		ldrh	r3, [r7, #2]	@ movhi
 3465 008a DBB2     		uxtb	r3, r3
 3466 008c 1344     		add	r3, r3, r2
 3467 008e DCB2     		uxtb	r4, r3
 3468 0090 BB88     		ldrh	r3, [r7, #4]	@ movhi
 3469 0092 DAB2     		uxtb	r2, r3
 3470 0094 3B88     		ldrh	r3, [r7]	@ movhi
 3471 0096 DBB2     		uxtb	r3, r3
 3472 0098 1344     		add	r3, r3, r2
 3473 009a DAB2     		uxtb	r2, r3
 3474 009c 3B7E     		ldrb	r3, [r7, #24]	@ zero_extendqisi2
 3475 009e 0093     		str	r3, [sp]
 3476 00a0 1346     		mov	r3, r2
 3477 00a2 2246     		mov	r2, r4
 3478 00a4 FFF7FEFF 		bl	GMG12864_Draw_line
1081:Core/Src/GMG12864_lib.c **** 	GMG12864_Draw_line(x, y, x, y + height, color); /*–õ–µ–≤–∞—è —Å—Ç–æ—Ä–æ–Ω–∞ –ø—Ä—è–º–æ—É–≥–æ–ª—å–Ω
 3479              		.loc 1 1081 2
 3480 00a8 FB88     		ldrh	r3, [r7, #6]	@ movhi
 3481 00aa D8B2     		uxtb	r0, r3
 3482 00ac BB88     		ldrh	r3, [r7, #4]	@ movhi
 3483 00ae D9B2     		uxtb	r1, r3
ARM GAS  C:\Users\SOLDER~1\AppData\Local\Temp\ccg2RcbO.s 			page 88


 3484 00b0 FB88     		ldrh	r3, [r7, #6]	@ movhi
 3485 00b2 DCB2     		uxtb	r4, r3
 3486 00b4 BB88     		ldrh	r3, [r7, #4]	@ movhi
 3487 00b6 DAB2     		uxtb	r2, r3
 3488 00b8 3B88     		ldrh	r3, [r7]	@ movhi
 3489 00ba DBB2     		uxtb	r3, r3
 3490 00bc 1344     		add	r3, r3, r2
 3491 00be DAB2     		uxtb	r2, r3
 3492 00c0 3B7E     		ldrb	r3, [r7, #24]	@ zero_extendqisi2
 3493 00c2 0093     		str	r3, [sp]
 3494 00c4 1346     		mov	r3, r2
 3495 00c6 2246     		mov	r2, r4
 3496 00c8 FFF7FEFF 		bl	GMG12864_Draw_line
1082:Core/Src/GMG12864_lib.c **** 	GMG12864_Draw_line(x + width, y, x + width, y + height, color); /*–ü—Ä–∞–≤–∞—è —Å—Ç–æ—Ä–æ–Ω–∞ –ø—Ä
 3497              		.loc 1 1082 2
 3498 00cc FB88     		ldrh	r3, [r7, #6]	@ movhi
 3499 00ce DAB2     		uxtb	r2, r3
 3500 00d0 7B88     		ldrh	r3, [r7, #2]	@ movhi
 3501 00d2 DBB2     		uxtb	r3, r3
 3502 00d4 1344     		add	r3, r3, r2
 3503 00d6 D8B2     		uxtb	r0, r3
 3504 00d8 BB88     		ldrh	r3, [r7, #4]	@ movhi
 3505 00da D9B2     		uxtb	r1, r3
 3506 00dc FB88     		ldrh	r3, [r7, #6]	@ movhi
 3507 00de DAB2     		uxtb	r2, r3
 3508 00e0 7B88     		ldrh	r3, [r7, #2]	@ movhi
 3509 00e2 DBB2     		uxtb	r3, r3
 3510 00e4 1344     		add	r3, r3, r2
 3511 00e6 DCB2     		uxtb	r4, r3
 3512 00e8 BB88     		ldrh	r3, [r7, #4]	@ movhi
 3513 00ea DAB2     		uxtb	r2, r3
 3514 00ec 3B88     		ldrh	r3, [r7]	@ movhi
 3515 00ee DBB2     		uxtb	r3, r3
 3516 00f0 1344     		add	r3, r3, r2
 3517 00f2 DAB2     		uxtb	r2, r3
 3518 00f4 3B7E     		ldrb	r3, [r7, #24]	@ zero_extendqisi2
 3519 00f6 0093     		str	r3, [sp]
 3520 00f8 1346     		mov	r3, r2
 3521 00fa 2246     		mov	r2, r4
 3522 00fc FFF7FEFF 		bl	GMG12864_Draw_line
1083:Core/Src/GMG12864_lib.c **** }
 3523              		.loc 1 1083 1
 3524 0100 00BF     		nop
 3525 0102 0C37     		adds	r7, r7, #12
 3526              		.cfi_def_cfa_offset 12
 3527 0104 BD46     		mov	sp, r7
 3528              		.cfi_def_cfa_register 13
 3529              		@ sp needed
 3530 0106 90BD     		pop	{r4, r7, pc}
 3531              	.L210:
 3532              		.align	2
 3533              	.L209:
 3534 0108 00000000 		.word	GMG12864_width
 3535 010c 00000000 		.word	GMG12864_height
 3536              		.cfi_endproc
 3537              	.LFE84:
 3539              		.section	.text.GMG12864_Draw_rectangle_filled,"ax",%progbits
ARM GAS  C:\Users\SOLDER~1\AppData\Local\Temp\ccg2RcbO.s 			page 89


 3540              		.align	1
 3541              		.global	GMG12864_Draw_rectangle_filled
 3542              		.syntax unified
 3543              		.thumb
 3544              		.thumb_func
 3546              	GMG12864_Draw_rectangle_filled:
 3547              	.LFB85:
1084:Core/Src/GMG12864_lib.c **** /*--------------------------------–í—ã–≤–µ—Å—Ç–∏ –ø—É—Å—Ç–æ—Ç–µ–ª—ã–π –ø—Ä—è–º–æ—É–≥–æ–ª—å–Ω–∏–∫---
1085:Core/Src/GMG12864_lib.c **** 
1086:Core/Src/GMG12864_lib.c **** /*-------------------------------–í—ã–≤–µ—Å—Ç–∏ –∑–∞–∫—Ä–∞—à–µ–Ω–Ω—ã–π –ø—Ä—è–º–æ—É–≥–æ–ª—å–Ω–∏–∫--
1087:Core/Src/GMG12864_lib.c **** void GMG12864_Draw_rectangle_filled(uint16_t x, uint16_t y, uint16_t width, uint16_t height, uint8_
 3548              		.loc 1 1087 109
 3549              		.cfi_startproc
 3550              		@ args = 4, pretend = 0, frame = 16
 3551              		@ frame_needed = 1, uses_anonymous_args = 0
 3552 0000 90B5     		push	{r4, r7, lr}
 3553              		.cfi_def_cfa_offset 12
 3554              		.cfi_offset 4, -12
 3555              		.cfi_offset 7, -8
 3556              		.cfi_offset 14, -4
 3557 0002 87B0     		sub	sp, sp, #28
 3558              		.cfi_def_cfa_offset 40
 3559 0004 02AF     		add	r7, sp, #8
 3560              		.cfi_def_cfa 7, 32
 3561 0006 0446     		mov	r4, r0
 3562 0008 0846     		mov	r0, r1
 3563 000a 1146     		mov	r1, r2
 3564 000c 1A46     		mov	r2, r3
 3565 000e 2346     		mov	r3, r4	@ movhi
 3566 0010 FB80     		strh	r3, [r7, #6]	@ movhi
 3567 0012 0346     		mov	r3, r0	@ movhi
 3568 0014 BB80     		strh	r3, [r7, #4]	@ movhi
 3569 0016 0B46     		mov	r3, r1	@ movhi
 3570 0018 7B80     		strh	r3, [r7, #2]	@ movhi
 3571 001a 1346     		mov	r3, r2	@ movhi
 3572 001c 3B80     		strh	r3, [r7]	@ movhi
1088:Core/Src/GMG12864_lib.c **** /// –í—ã–≤–µ—Å—Ç–∏ –∑–∞–∫—Ä–∞—à–µ–Ω–Ω—ã–π –ø—Ä—è–º–æ—É–≥–æ–ª—å–Ω–∏–∫
1089:Core/Src/GMG12864_lib.c **** /// \param x - –Ω–∞—á–∞–ª—å–Ω–∞—è —Ç–æ—á–∫–∞ –ø–æ –æ—Å–∏ "x"
1090:Core/Src/GMG12864_lib.c **** /// \param y - –Ω–∞—á–∞–ª—å–Ω–∞—è —Ç–æ—á–∫–∞ –ø–æ –æ—Å–∏ "y"
1091:Core/Src/GMG12864_lib.c **** /// \param width - —à–∏—Ä–∏–Ω–∞ –ø—Ä—è–º–æ—É–≥–æ–ª—å–Ω–∏–∫–∞
1092:Core/Src/GMG12864_lib.c **** /// \param height - –≤—ã—Å–æ—Ç–∞ –ø—Ä—è–º–æ—É–≥–æ–ª—å–Ω–∏–∫–∞
1093:Core/Src/GMG12864_lib.c **** 
1094:Core/Src/GMG12864_lib.c **** 	/*–ü—Ä–æ–≤–µ—Ä–∫–∞ —à–∏—Ä–∏–Ω—ã –∏ –≤—ã—Å–æ—Ç—ã*/
1095:Core/Src/GMG12864_lib.c **** 	if ((x + width) >= GMG12864_width) {
 3573              		.loc 1 1095 9
 3574 001e FA88     		ldrh	r2, [r7, #6]
 3575 0020 7B88     		ldrh	r3, [r7, #2]
 3576 0022 1344     		add	r3, r3, r2
 3577              		.loc 1 1095 18
 3578 0024 1F4A     		ldr	r2, .L216
 3579 0026 1278     		ldrb	r2, [r2]	@ zero_extendqisi2
 3580              		.loc 1 1095 5
 3581 0028 9342     		cmp	r3, r2
 3582 002a 05DB     		blt	.L212
1096:Core/Src/GMG12864_lib.c **** 		width = GMG12864_width - x;
 3583              		.loc 1 1096 26
 3584 002c 1D4B     		ldr	r3, .L216
ARM GAS  C:\Users\SOLDER~1\AppData\Local\Temp\ccg2RcbO.s 			page 90


 3585 002e 1B78     		ldrb	r3, [r3]	@ zero_extendqisi2
 3586 0030 9AB2     		uxth	r2, r3
 3587              		.loc 1 1096 9
 3588 0032 FB88     		ldrh	r3, [r7, #6]	@ movhi
 3589 0034 D31A     		subs	r3, r2, r3
 3590 0036 7B80     		strh	r3, [r7, #2]	@ movhi
 3591              	.L212:
1097:Core/Src/GMG12864_lib.c **** 	}
1098:Core/Src/GMG12864_lib.c **** 	if ((y + height) >= GMG12864_height) {
 3592              		.loc 1 1098 9
 3593 0038 BA88     		ldrh	r2, [r7, #4]
 3594 003a 3B88     		ldrh	r3, [r7]
 3595 003c 1344     		add	r3, r3, r2
 3596              		.loc 1 1098 19
 3597 003e 1A4A     		ldr	r2, .L216+4
 3598 0040 1278     		ldrb	r2, [r2]	@ zero_extendqisi2
 3599              		.loc 1 1098 5
 3600 0042 9342     		cmp	r3, r2
 3601 0044 05DB     		blt	.L213
1099:Core/Src/GMG12864_lib.c **** 		height = GMG12864_height - y;
 3602              		.loc 1 1099 28
 3603 0046 184B     		ldr	r3, .L216+4
 3604 0048 1B78     		ldrb	r3, [r3]	@ zero_extendqisi2
 3605 004a 9AB2     		uxth	r2, r3
 3606              		.loc 1 1099 10
 3607 004c BB88     		ldrh	r3, [r7, #4]	@ movhi
 3608 004e D31A     		subs	r3, r2, r3
 3609 0050 3B80     		strh	r3, [r7]	@ movhi
 3610              	.L213:
 3611              	.LBB30:
1100:Core/Src/GMG12864_lib.c **** 	}
1101:Core/Src/GMG12864_lib.c **** 
1102:Core/Src/GMG12864_lib.c **** 	/*–†–∏—Å—É–µ–º –ª–∏–Ω–∏–∏*/
1103:Core/Src/GMG12864_lib.c **** 	for (uint8_t i = 0; i <= height; i++) {
 3612              		.loc 1 1103 15
 3613 0052 0023     		movs	r3, #0
 3614 0054 FB73     		strb	r3, [r7, #15]
 3615              		.loc 1 1103 2
 3616 0056 1BE0     		b	.L214
 3617              	.L215:
1104:Core/Src/GMG12864_lib.c **** 		GMG12864_Draw_line(x, y + i, x + width, y + i, color);
 3618              		.loc 1 1104 3 discriminator 3
 3619 0058 FB88     		ldrh	r3, [r7, #6]	@ movhi
 3620 005a D8B2     		uxtb	r0, r3
 3621 005c BB88     		ldrh	r3, [r7, #4]	@ movhi
 3622 005e DAB2     		uxtb	r2, r3
 3623 0060 FB7B     		ldrb	r3, [r7, #15]
 3624 0062 1344     		add	r3, r3, r2
 3625 0064 D9B2     		uxtb	r1, r3
 3626 0066 FB88     		ldrh	r3, [r7, #6]	@ movhi
 3627 0068 DAB2     		uxtb	r2, r3
 3628 006a 7B88     		ldrh	r3, [r7, #2]	@ movhi
 3629 006c DBB2     		uxtb	r3, r3
 3630 006e 1344     		add	r3, r3, r2
 3631 0070 DCB2     		uxtb	r4, r3
 3632 0072 BB88     		ldrh	r3, [r7, #4]	@ movhi
 3633 0074 DAB2     		uxtb	r2, r3
ARM GAS  C:\Users\SOLDER~1\AppData\Local\Temp\ccg2RcbO.s 			page 91


 3634 0076 FB7B     		ldrb	r3, [r7, #15]
 3635 0078 1344     		add	r3, r3, r2
 3636 007a DAB2     		uxtb	r2, r3
 3637 007c 97F82030 		ldrb	r3, [r7, #32]	@ zero_extendqisi2
 3638 0080 0093     		str	r3, [sp]
 3639 0082 1346     		mov	r3, r2
 3640 0084 2246     		mov	r2, r4
 3641 0086 FFF7FEFF 		bl	GMG12864_Draw_line
1103:Core/Src/GMG12864_lib.c **** 		GMG12864_Draw_line(x, y + i, x + width, y + i, color);
 3642              		.loc 1 1103 36 discriminator 3
 3643 008a FB7B     		ldrb	r3, [r7, #15]	@ zero_extendqisi2
 3644 008c 0133     		adds	r3, r3, #1
 3645 008e FB73     		strb	r3, [r7, #15]
 3646              	.L214:
1103:Core/Src/GMG12864_lib.c **** 		GMG12864_Draw_line(x, y + i, x + width, y + i, color);
 3647              		.loc 1 1103 24 discriminator 1
 3648 0090 FB7B     		ldrb	r3, [r7, #15]	@ zero_extendqisi2
 3649 0092 9BB2     		uxth	r3, r3
1103:Core/Src/GMG12864_lib.c **** 		GMG12864_Draw_line(x, y + i, x + width, y + i, color);
 3650              		.loc 1 1103 2 discriminator 1
 3651 0094 3A88     		ldrh	r2, [r7]
 3652 0096 9A42     		cmp	r2, r3
 3653 0098 DED2     		bcs	.L215
 3654              	.LBE30:
1105:Core/Src/GMG12864_lib.c **** 	}
1106:Core/Src/GMG12864_lib.c **** }
 3655              		.loc 1 1106 1
 3656 009a 00BF     		nop
 3657 009c 00BF     		nop
 3658 009e 1437     		adds	r7, r7, #20
 3659              		.cfi_def_cfa_offset 12
 3660 00a0 BD46     		mov	sp, r7
 3661              		.cfi_def_cfa_register 13
 3662              		@ sp needed
 3663 00a2 90BD     		pop	{r4, r7, pc}
 3664              	.L217:
 3665              		.align	2
 3666              	.L216:
 3667 00a4 00000000 		.word	GMG12864_width
 3668 00a8 00000000 		.word	GMG12864_height
 3669              		.cfi_endproc
 3670              	.LFE85:
 3672              		.section	.text.GMG12864_Draw_circle,"ax",%progbits
 3673              		.align	1
 3674              		.global	GMG12864_Draw_circle
 3675              		.syntax unified
 3676              		.thumb
 3677              		.thumb_func
 3679              	GMG12864_Draw_circle:
 3680              	.LFB86:
1107:Core/Src/GMG12864_lib.c **** /*-------------------------------–í—ã–≤–µ—Å—Ç–∏ –∑–∞–∫—Ä–∞—à–µ–Ω–Ω—ã–π –ø—Ä—è–º–æ—É–≥–æ–ª—å–Ω–∏–∫--
1108:Core/Src/GMG12864_lib.c **** 
1109:Core/Src/GMG12864_lib.c **** /*---------------------------------–í—ã–≤–µ—Å—Ç–∏ –ø—É—Å—Ç–æ—Ç–µ–ª—É—é –æ–∫—Ä—É–∂–Ω–æ—Å—Ç—å--------
1110:Core/Src/GMG12864_lib.c **** void GMG12864_Draw_circle(uint8_t x, uint8_t y, uint8_t radius, uint8_t color) {
 3681              		.loc 1 1110 80
 3682              		.cfi_startproc
 3683              		@ args = 0, pretend = 0, frame = 32
ARM GAS  C:\Users\SOLDER~1\AppData\Local\Temp\ccg2RcbO.s 			page 92


 3684              		@ frame_needed = 1, uses_anonymous_args = 0
 3685 0000 90B5     		push	{r4, r7, lr}
 3686              		.cfi_def_cfa_offset 12
 3687              		.cfi_offset 4, -12
 3688              		.cfi_offset 7, -8
 3689              		.cfi_offset 14, -4
 3690 0002 89B0     		sub	sp, sp, #36
 3691              		.cfi_def_cfa_offset 48
 3692 0004 00AF     		add	r7, sp, #0
 3693              		.cfi_def_cfa_register 7
 3694 0006 0446     		mov	r4, r0
 3695 0008 0846     		mov	r0, r1
 3696 000a 1146     		mov	r1, r2
 3697 000c 1A46     		mov	r2, r3
 3698 000e 2346     		mov	r3, r4
 3699 0010 FB71     		strb	r3, [r7, #7]
 3700 0012 0346     		mov	r3, r0
 3701 0014 BB71     		strb	r3, [r7, #6]
 3702 0016 0B46     		mov	r3, r1
 3703 0018 7B71     		strb	r3, [r7, #5]
 3704 001a 1346     		mov	r3, r2
 3705 001c 3B71     		strb	r3, [r7, #4]
1111:Core/Src/GMG12864_lib.c **** /// –í—ã–≤–µ—Å—Ç–∏ –ø—É—Å—Ç–æ—Ç–µ–ª—É—é –æ–∫—Ä—É–∂–Ω–æ—Å—Ç—å
1112:Core/Src/GMG12864_lib.c **** /// \param x - —Ç–æ—á–∫–∞ —Ü–µ–Ω—Ç—Ä–∞ –æ–∫—Ä—É–∂–Ω–æ—Å—Ç–∏ –ø–æ –æ—Å–∏ "x"
1113:Core/Src/GMG12864_lib.c **** /// \param y - —Ç–æ—á–∫–∞ —Ü–µ–Ω—Ç—Ä–∞ –æ–∫—Ä—É–∂–Ω–æ—Å—Ç–∏ –ø–æ –æ—Å–∏ "y"
1114:Core/Src/GMG12864_lib.c **** /// \param radius - —Ä–∞–¥–∏—É—Å –æ–∫—Ä—É–∂–Ω–æ—Å—Ç–∏
1115:Core/Src/GMG12864_lib.c **** 
1116:Core/Src/GMG12864_lib.c **** 	int f = 1 - (int) radius;
 3706              		.loc 1 1116 14
 3707 001e 7B79     		ldrb	r3, [r7, #5]	@ zero_extendqisi2
 3708              		.loc 1 1116 6
 3709 0020 C3F10103 		rsb	r3, r3, #1
 3710 0024 FB61     		str	r3, [r7, #28]
1117:Core/Src/GMG12864_lib.c **** 	int ddF_x = 1;
 3711              		.loc 1 1117 6
 3712 0026 0123     		movs	r3, #1
 3713 0028 BB61     		str	r3, [r7, #24]
1118:Core/Src/GMG12864_lib.c **** 
1119:Core/Src/GMG12864_lib.c **** 	int ddF_y = -2 * (int) radius;
 3714              		.loc 1 1119 19
 3715 002a 7A79     		ldrb	r2, [r7, #5]	@ zero_extendqisi2
 3716              		.loc 1 1119 6
 3717 002c 1346     		mov	r3, r2
 3718 002e DB07     		lsls	r3, r3, #31
 3719 0030 9B1A     		subs	r3, r3, r2
 3720 0032 5B00     		lsls	r3, r3, #1
 3721 0034 7B61     		str	r3, [r7, #20]
1120:Core/Src/GMG12864_lib.c **** 	int x_0 = 0;
 3722              		.loc 1 1120 6
 3723 0036 0023     		movs	r3, #0
 3724 0038 3B61     		str	r3, [r7, #16]
1121:Core/Src/GMG12864_lib.c **** 
1122:Core/Src/GMG12864_lib.c **** 	GMG12864_Draw_pixel(x, y + radius, color);
 3725              		.loc 1 1122 2
 3726 003a FB79     		ldrb	r3, [r7, #7]	@ zero_extendqisi2
 3727 003c 18B2     		sxth	r0, r3
 3728              		.loc 1 1122 27
ARM GAS  C:\Users\SOLDER~1\AppData\Local\Temp\ccg2RcbO.s 			page 93


 3729 003e BB79     		ldrb	r3, [r7, #6]	@ zero_extendqisi2
 3730 0040 9AB2     		uxth	r2, r3
 3731 0042 7B79     		ldrb	r3, [r7, #5]	@ zero_extendqisi2
 3732 0044 9BB2     		uxth	r3, r3
 3733 0046 1344     		add	r3, r3, r2
 3734 0048 9BB2     		uxth	r3, r3
 3735              		.loc 1 1122 2
 3736 004a 1BB2     		sxth	r3, r3
 3737 004c 3A79     		ldrb	r2, [r7, #4]	@ zero_extendqisi2
 3738 004e 1946     		mov	r1, r3
 3739 0050 FFF7FEFF 		bl	GMG12864_Draw_pixel
1123:Core/Src/GMG12864_lib.c **** 	GMG12864_Draw_pixel(x, y - radius, color);
 3740              		.loc 1 1123 2
 3741 0054 FB79     		ldrb	r3, [r7, #7]	@ zero_extendqisi2
 3742 0056 18B2     		sxth	r0, r3
 3743              		.loc 1 1123 27
 3744 0058 BB79     		ldrb	r3, [r7, #6]	@ zero_extendqisi2
 3745 005a 9AB2     		uxth	r2, r3
 3746 005c 7B79     		ldrb	r3, [r7, #5]	@ zero_extendqisi2
 3747 005e 9BB2     		uxth	r3, r3
 3748 0060 D31A     		subs	r3, r2, r3
